
MateusPereiraSprint4.elf:     file format elf32-avr

Sections:
Idx Name          Size      VMA       LMA       File off  Algn
  0 .data         0000003e  00800100  00000efc  00000f90  2**0
                  CONTENTS, ALLOC, LOAD, DATA
  1 .text         00000efc  00000000  00000000  00000094  2**1
                  CONTENTS, ALLOC, LOAD, READONLY, CODE
  2 .bss          0000021c  0080013e  0080013e  00000fce  2**0
                  ALLOC
  3 .comment      00000030  00000000  00000000  00000fce  2**0
                  CONTENTS, READONLY
  4 .note.gnu.avr.deviceinfo 00000040  00000000  00000000  00001000  2**2
                  CONTENTS, READONLY
  5 .debug_aranges 000000b8  00000000  00000000  00001040  2**0
                  CONTENTS, READONLY, DEBUGGING
  6 .debug_info   000013d3  00000000  00000000  000010f8  2**0
                  CONTENTS, READONLY, DEBUGGING
  7 .debug_abbrev 000009b2  00000000  00000000  000024cb  2**0
                  CONTENTS, READONLY, DEBUGGING
  8 .debug_line   0000092a  00000000  00000000  00002e7d  2**0
                  CONTENTS, READONLY, DEBUGGING
  9 .debug_frame  00000228  00000000  00000000  000037a8  2**2
                  CONTENTS, READONLY, DEBUGGING
 10 .debug_str    000005da  00000000  00000000  000039d0  2**0
                  CONTENTS, READONLY, DEBUGGING
 11 .debug_loc    00000883  00000000  00000000  00003faa  2**0
                  CONTENTS, READONLY, DEBUGGING
 12 .debug_ranges 00000098  00000000  00000000  0000482d  2**0
                  CONTENTS, READONLY, DEBUGGING

Disassembly of section .text:

00000000 <__vectors>:
   0:	0c 94 24 01 	jmp	0x248	; 0x248 <__ctors_end>
   4:	0c 94 43 01 	jmp	0x286	; 0x286 <__vector_1>
   8:	0c 94 5a 01 	jmp	0x2b4	; 0x2b4 <__vector_2>
   c:	0c 94 41 01 	jmp	0x282	; 0x282 <__bad_interrupt>
  10:	0c 94 41 01 	jmp	0x282	; 0x282 <__bad_interrupt>
  14:	0c 94 db 01 	jmp	0x3b6	; 0x3b6 <__vector_5>
  18:	0c 94 41 01 	jmp	0x282	; 0x282 <__bad_interrupt>
  1c:	0c 94 41 01 	jmp	0x282	; 0x282 <__bad_interrupt>
  20:	0c 94 41 01 	jmp	0x282	; 0x282 <__bad_interrupt>
  24:	0c 94 41 01 	jmp	0x282	; 0x282 <__bad_interrupt>
  28:	0c 94 41 01 	jmp	0x282	; 0x282 <__bad_interrupt>
  2c:	0c 94 41 01 	jmp	0x282	; 0x282 <__bad_interrupt>
  30:	0c 94 41 01 	jmp	0x282	; 0x282 <__bad_interrupt>
  34:	0c 94 41 01 	jmp	0x282	; 0x282 <__bad_interrupt>
  38:	0c 94 71 01 	jmp	0x2e2	; 0x2e2 <__vector_14>
  3c:	0c 94 41 01 	jmp	0x282	; 0x282 <__bad_interrupt>
  40:	0c 94 41 01 	jmp	0x282	; 0x282 <__bad_interrupt>
  44:	0c 94 41 01 	jmp	0x282	; 0x282 <__bad_interrupt>
  48:	0c 94 41 01 	jmp	0x282	; 0x282 <__bad_interrupt>
  4c:	0c 94 41 01 	jmp	0x282	; 0x282 <__bad_interrupt>
  50:	0c 94 41 01 	jmp	0x282	; 0x282 <__bad_interrupt>
  54:	0c 94 0e 02 	jmp	0x41c	; 0x41c <__vector_21>
  58:	0c 94 41 01 	jmp	0x282	; 0x282 <__bad_interrupt>
  5c:	0c 94 41 01 	jmp	0x282	; 0x282 <__bad_interrupt>
  60:	0c 94 41 01 	jmp	0x282	; 0x282 <__bad_interrupt>
  64:	0c 94 41 01 	jmp	0x282	; 0x282 <__bad_interrupt>

00000068 <CHARSET>:
  68:	00 00 00 00 00 00 00 5f 00 00 00 07 00 07 00 14     ......._........
  78:	7f 14 7f 14 24 2a 7f 2a 12 23 13 08 64 62 36 49     ....$*.*.#..db6I
  88:	55 22 50 00 05 03 00 00 00 1c 22 41 00 00 41 22     U"P......."A..A"
  98:	1c 00 14 08 3e 08 14 08 08 3e 08 08 00 50 30 00     ....>....>...P0.
  a8:	00 08 08 08 08 08 00 60 60 00 00 20 10 08 04 02     .......``.. ....
  b8:	3e 51 49 45 3e 00 42 7f 40 00 42 61 51 49 46 21     >QIE>.B.@.BaQIF!
  c8:	41 45 4b 31 18 14 12 7f 10 27 45 45 45 39 3c 4a     AEK1.....'EEE9<J
  d8:	49 49 30 01 71 09 05 03 36 49 49 49 36 06 49 49     II0.q...6III6.II
  e8:	29 1e 00 36 36 00 00 00 56 36 00 00 08 14 22 41     )..66...V6...."A
  f8:	00 14 14 14 14 14 00 41 22 14 08 02 01 51 09 06     .......A"....Q..
 108:	32 49 79 41 3e 7e 11 11 11 7e 7f 49 49 49 36 3e     2IyA>~...~.III6>
 118:	41 41 41 22 7f 41 41 22 1c 7f 49 49 49 41 7f 09     AAA".AA"..IIIA..
 128:	09 09 01 3e 41 49 49 7a 7f 08 08 08 7f 00 41 7f     ...>AIIz......A.
 138:	41 00 20 40 41 3f 01 7f 08 14 22 41 7f 40 40 40     A. @A?...."A.@@@
 148:	40 7f 02 0c 02 7f 7f 04 08 10 7f 3e 41 41 41 3e     @..........>AAA>
 158:	7f 09 09 09 06 3e 41 51 21 5e 7f 09 19 29 46 46     .....>AQ!^...)FF
 168:	49 49 49 31 01 01 7f 01 01 3f 40 40 40 3f 1f 20     III1.....?@@@?. 
 178:	40 20 1f 3f 40 38 40 3f 63 14 08 14 63 07 08 70     @ .?@8@?c...c..p
 188:	08 07 61 51 49 45 43 00 7f 41 41 00 02 04 08 10     ..aQIEC..AA.....
 198:	20 00 41 41 7f 00 04 02 01 02 04 40 40 40 40 40      .AA.......@@@@@
 1a8:	00 01 02 04 00 20 54 54 54 78 7f 48 44 44 38 38     ..... TTTx.HDD88
 1b8:	44 44 44 20 38 44 44 48 7f 38 54 54 54 18 08 7e     DDD 8DDH.8TTT..~
 1c8:	09 01 02 0c 52 52 52 3e 7f 08 04 04 78 00 44 7d     ....RRR>....x.D}
 1d8:	40 00 20 40 44 3d 00 7f 10 28 44 00 00 41 7f 40     @. @D=...(D..A.@
 1e8:	00 7c 04 18 04 78 7c 08 04 04 78 38 44 44 44 38     .|...x|...x8DDD8
 1f8:	7c 14 14 14 08 08 14 14 18 7c 7c 08 04 04 08 48     |........||....H
 208:	54 54 54 20 04 3f 44 40 20 3c 40 40 20 7c 1c 20     TTT .?D@ <@@ |. 
 218:	40 20 1c 3c 40 30 40 3c 44 28 10 28 44 0c 50 50     @ .<@0@<D(.(D.PP
 228:	50 3c 44 64 54 4c 44 00 08 36 41 00 00 00 7f 00     P<DdTLD..6A.....
 238:	00 00 41 36 08 00 10 08 08 10 08 00 00 00 00 00     ..A6............

00000248 <__ctors_end>:
 248:	11 24       	eor	r1, r1
 24a:	1f be       	out	0x3f, r1	; 63
 24c:	cf ef       	ldi	r28, 0xFF	; 255
 24e:	d8 e0       	ldi	r29, 0x08	; 8
 250:	de bf       	out	0x3e, r29	; 62
 252:	cd bf       	out	0x3d, r28	; 61

00000254 <__do_copy_data>:
 254:	11 e0       	ldi	r17, 0x01	; 1
 256:	a0 e0       	ldi	r26, 0x00	; 0
 258:	b1 e0       	ldi	r27, 0x01	; 1
 25a:	ec ef       	ldi	r30, 0xFC	; 252
 25c:	fe e0       	ldi	r31, 0x0E	; 14
 25e:	02 c0       	rjmp	.+4      	; 0x264 <__do_copy_data+0x10>
 260:	05 90       	lpm	r0, Z+
 262:	0d 92       	st	X+, r0
 264:	ae 33       	cpi	r26, 0x3E	; 62
 266:	b1 07       	cpc	r27, r17
 268:	d9 f7       	brne	.-10     	; 0x260 <__do_copy_data+0xc>

0000026a <__do_clear_bss>:
 26a:	23 e0       	ldi	r18, 0x03	; 3
 26c:	ae e3       	ldi	r26, 0x3E	; 62
 26e:	b1 e0       	ldi	r27, 0x01	; 1
 270:	01 c0       	rjmp	.+2      	; 0x274 <.do_clear_bss_start>

00000272 <.do_clear_bss_loop>:
 272:	1d 92       	st	X+, r1

00000274 <.do_clear_bss_start>:
 274:	aa 35       	cpi	r26, 0x5A	; 90
 276:	b2 07       	cpc	r27, r18
 278:	e1 f7       	brne	.-8      	; 0x272 <.do_clear_bss_loop>
 27a:	0e 94 42 02 	call	0x484	; 0x484 <main>
 27e:	0c 94 7c 07 	jmp	0xef8	; 0xef8 <_exit>

00000282 <__bad_interrupt>:
 282:	0c 94 00 00 	jmp	0	; 0x0 <__vectors>

00000286 <__vector_1>:

uint16_t tamroda = 50, rpm = 0, dist = 0, velocidade = 0, tempo_ms = 0, mudanca = 0, aux_dist = 0, leitura_ADC = 0, aux_pwm = 0, modo_p = 0, pqp = 0;
unsigned char display_string[tamanho_vetor];

ISR(INT0_vect)
{
 286:	1f 92       	push	r1
 288:	0f 92       	push	r0
 28a:	0f b6       	in	r0, 0x3f	; 63
 28c:	0f 92       	push	r0
 28e:	11 24       	eor	r1, r1
 290:	8f 93       	push	r24
 292:	9f 93       	push	r25
	tamroda++;
 294:	80 91 00 01 	lds	r24, 0x0100	; 0x800100 <__DATA_REGION_ORIGIN__>
 298:	90 91 01 01 	lds	r25, 0x0101	; 0x800101 <__DATA_REGION_ORIGIN__+0x1>
 29c:	01 96       	adiw	r24, 0x01	; 1
 29e:	90 93 01 01 	sts	0x0101, r25	; 0x800101 <__DATA_REGION_ORIGIN__+0x1>
 2a2:	80 93 00 01 	sts	0x0100, r24	; 0x800100 <__DATA_REGION_ORIGIN__>
}
 2a6:	9f 91       	pop	r25
 2a8:	8f 91       	pop	r24
 2aa:	0f 90       	pop	r0
 2ac:	0f be       	out	0x3f, r0	; 63
 2ae:	0f 90       	pop	r0
 2b0:	1f 90       	pop	r1
 2b2:	18 95       	reti

000002b4 <__vector_2>:

ISR(INT1_vect)
{
 2b4:	1f 92       	push	r1
 2b6:	0f 92       	push	r0
 2b8:	0f b6       	in	r0, 0x3f	; 63
 2ba:	0f 92       	push	r0
 2bc:	11 24       	eor	r1, r1
 2be:	8f 93       	push	r24
 2c0:	9f 93       	push	r25
	tamroda--;
 2c2:	80 91 00 01 	lds	r24, 0x0100	; 0x800100 <__DATA_REGION_ORIGIN__>
 2c6:	90 91 01 01 	lds	r25, 0x0101	; 0x800101 <__DATA_REGION_ORIGIN__+0x1>
 2ca:	01 97       	sbiw	r24, 0x01	; 1
 2cc:	90 93 01 01 	sts	0x0101, r25	; 0x800101 <__DATA_REGION_ORIGIN__+0x1>
 2d0:	80 93 00 01 	sts	0x0100, r24	; 0x800100 <__DATA_REGION_ORIGIN__>
}
 2d4:	9f 91       	pop	r25
 2d6:	8f 91       	pop	r24
 2d8:	0f 90       	pop	r0
 2da:	0f be       	out	0x3f, r0	; 63
 2dc:	0f 90       	pop	r0
 2de:	1f 90       	pop	r1
 2e0:	18 95       	reti

000002e2 <__vector_14>:

ISR(TIMER0_COMPA_vect) // Interrupção do TC0 a  cada 1ms
{
 2e2:	1f 92       	push	r1
 2e4:	0f 92       	push	r0
 2e6:	0f b6       	in	r0, 0x3f	; 63
 2e8:	0f 92       	push	r0
 2ea:	11 24       	eor	r1, r1
 2ec:	2f 93       	push	r18
 2ee:	3f 93       	push	r19
 2f0:	4f 93       	push	r20
 2f2:	5f 93       	push	r21
 2f4:	6f 93       	push	r22
 2f6:	7f 93       	push	r23
 2f8:	8f 93       	push	r24
 2fa:	9f 93       	push	r25
 2fc:	af 93       	push	r26
 2fe:	bf 93       	push	r27
 300:	ef 93       	push	r30
 302:	ff 93       	push	r31
	static float aux;
	tempo_ms++;
 304:	40 91 48 01 	lds	r20, 0x0148	; 0x800148 <tempo_ms>
 308:	50 91 49 01 	lds	r21, 0x0149	; 0x800149 <tempo_ms+0x1>
 30c:	4f 5f       	subi	r20, 0xFF	; 255
 30e:	5f 4f       	sbci	r21, 0xFF	; 255
 310:	50 93 49 01 	sts	0x0149, r21	; 0x800149 <tempo_ms+0x1>
 314:	40 93 48 01 	sts	0x0148, r20	; 0x800148 <tempo_ms>
	if((tempo_ms % 1000) == 0) // Entra a cada 1 segundo
 318:	9a 01       	movw	r18, r20
 31a:	36 95       	lsr	r19
 31c:	27 95       	ror	r18
 31e:	36 95       	lsr	r19
 320:	27 95       	ror	r18
 322:	36 95       	lsr	r19
 324:	27 95       	ror	r18
 326:	a5 ec       	ldi	r26, 0xC5	; 197
 328:	b0 e2       	ldi	r27, 0x20	; 32
 32a:	0e 94 38 07 	call	0xe70	; 0xe70 <__umulhisi3>
 32e:	92 95       	swap	r25
 330:	82 95       	swap	r24
 332:	8f 70       	andi	r24, 0x0F	; 15
 334:	89 27       	eor	r24, r25
 336:	9f 70       	andi	r25, 0x0F	; 15
 338:	89 27       	eor	r24, r25
 33a:	68 ee       	ldi	r22, 0xE8	; 232
 33c:	73 e0       	ldi	r23, 0x03	; 3
 33e:	86 9f       	mul	r24, r22
 340:	90 01       	movw	r18, r0
 342:	87 9f       	mul	r24, r23
 344:	30 0d       	add	r19, r0
 346:	96 9f       	mul	r25, r22
 348:	30 0d       	add	r19, r0
 34a:	11 24       	eor	r1, r1
 34c:	42 17       	cp	r20, r18
 34e:	53 07       	cpc	r21, r19
 350:	09 f5       	brne	.+66     	; 0x394 <__vector_14+0xb2>
	{
		aux = mudanca; // Vamos ter rotações por segundo, Divide por 2 pois só queremos a contagem da borda de descida
 352:	60 91 46 01 	lds	r22, 0x0146	; 0x800146 <mudanca>
 356:	70 91 47 01 	lds	r23, 0x0147	; 0x800147 <mudanca+0x1>
 35a:	80 e0       	ldi	r24, 0x00	; 0
 35c:	90 e0       	ldi	r25, 0x00	; 0
 35e:	0e 94 1d 06 	call	0xc3a	; 0xc3a <__floatunsisf>
		rpm = (aux*60);
 362:	20 e0       	ldi	r18, 0x00	; 0
 364:	30 e0       	ldi	r19, 0x00	; 0
 366:	40 e7       	ldi	r20, 0x70	; 112
 368:	52 e4       	ldi	r21, 0x42	; 66
 36a:	0e 94 ab 06 	call	0xd56	; 0xd56 <__mulsf3>
 36e:	0e 94 ee 05 	call	0xbdc	; 0xbdc <__fixunssfsi>
 372:	70 93 4f 01 	sts	0x014F, r23	; 0x80014f <rpm+0x1>
 376:	60 93 4e 01 	sts	0x014E, r22	; 0x80014e <rpm>
		mudanca = 0;
 37a:	10 92 47 01 	sts	0x0147, r1	; 0x800147 <mudanca+0x1>
 37e:	10 92 46 01 	sts	0x0146, r1	; 0x800146 <mudanca>
		aux_dist++;	// Conta de 1 em 1 Segundo
 382:	80 91 44 01 	lds	r24, 0x0144	; 0x800144 <aux_dist>
 386:	90 91 45 01 	lds	r25, 0x0145	; 0x800145 <aux_dist+0x1>
 38a:	01 96       	adiw	r24, 0x01	; 1
 38c:	90 93 45 01 	sts	0x0145, r25	; 0x800145 <aux_dist+0x1>
 390:	80 93 44 01 	sts	0x0144, r24	; 0x800144 <aux_dist>
	}
}
 394:	ff 91       	pop	r31
 396:	ef 91       	pop	r30
 398:	bf 91       	pop	r27
 39a:	af 91       	pop	r26
 39c:	9f 91       	pop	r25
 39e:	8f 91       	pop	r24
 3a0:	7f 91       	pop	r23
 3a2:	6f 91       	pop	r22
 3a4:	5f 91       	pop	r21
 3a6:	4f 91       	pop	r20
 3a8:	3f 91       	pop	r19
 3aa:	2f 91       	pop	r18
 3ac:	0f 90       	pop	r0
 3ae:	0f be       	out	0x3f, r0	; 63
 3b0:	0f 90       	pop	r0
 3b2:	1f 90       	pop	r1
 3b4:	18 95       	reti

000003b6 <__vector_5>:

ISR(PCINT2_vect) // Interrupção 2 por mudança de pino
{
 3b6:	1f 92       	push	r1
 3b8:	0f 92       	push	r0
 3ba:	0f b6       	in	r0, 0x3f	; 63
 3bc:	0f 92       	push	r0
 3be:	11 24       	eor	r1, r1
 3c0:	8f 93       	push	r24
 3c2:	9f 93       	push	r25
	if (!teste_porta (PIND, PD1))
 3c4:	49 99       	sbic	0x09, 1	; 9
 3c6:	09 c0       	rjmp	.+18     	; 0x3da <__vector_5+0x24>
	{
		mudanca++; // Conta descida e subida
 3c8:	80 91 46 01 	lds	r24, 0x0146	; 0x800146 <mudanca>
 3cc:	90 91 47 01 	lds	r25, 0x0147	; 0x800147 <mudanca+0x1>
 3d0:	01 96       	adiw	r24, 0x01	; 1
 3d2:	90 93 47 01 	sts	0x0147, r25	; 0x800147 <mudanca+0x1>
 3d6:	80 93 46 01 	sts	0x0146, r24	; 0x800146 <mudanca>
	}
	
	if (teste_porta(PIND,PD4)==0) // SE APERTAR O BOTÃO +10 CAI AQUI
 3da:	4c 99       	sbic	0x09, 4	; 9
 3dc:	07 c0       	rjmp	.+14     	; 0x3ec <__vector_5+0x36>
	{
		pqp = 5; // carro parado
 3de:	85 e0       	ldi	r24, 0x05	; 5
 3e0:	90 e0       	ldi	r25, 0x00	; 0
 3e2:	90 93 3f 01 	sts	0x013F, r25	; 0x80013f <__data_end+0x1>
 3e6:	80 93 3e 01 	sts	0x013E, r24	; 0x80013e <__data_end>
 3ea:	11 c0       	rjmp	.+34     	; 0x40e <__EEPROM_REGION_LENGTH__+0xe>
	}
		else if (teste_porta(PIND,PD5)==0) // SE APERTAR O BOTÃO +10 CAI AQUI
 3ec:	4d 99       	sbic	0x09, 5	; 9
 3ee:	07 c0       	rjmp	.+14     	; 0x3fe <__vector_5+0x48>
		{
			pqp = 11; // Motor sentido horário - D
 3f0:	8b e0       	ldi	r24, 0x0B	; 11
 3f2:	90 e0       	ldi	r25, 0x00	; 0
 3f4:	90 93 3f 01 	sts	0x013F, r25	; 0x80013f <__data_end+0x1>
 3f8:	80 93 3e 01 	sts	0x013E, r24	; 0x80013e <__data_end>
 3fc:	08 c0       	rjmp	.+16     	; 0x40e <__EEPROM_REGION_LENGTH__+0xe>
		}
		else if (!teste_porta(PIND,PD5))
 3fe:	4d 99       	sbic	0x09, 5	; 9
 400:	06 c0       	rjmp	.+12     	; 0x40e <__EEPROM_REGION_LENGTH__+0xe>
		{
			pqp = 13; // Motor sentido anti-horário - R
 402:	8d e0       	ldi	r24, 0x0D	; 13
 404:	90 e0       	ldi	r25, 0x00	; 0
 406:	90 93 3f 01 	sts	0x013F, r25	; 0x80013f <__data_end+0x1>
 40a:	80 93 3e 01 	sts	0x013E, r24	; 0x80013e <__data_end>
		}
}
 40e:	9f 91       	pop	r25
 410:	8f 91       	pop	r24
 412:	0f 90       	pop	r0
 414:	0f be       	out	0x3f, r0	; 63
 416:	0f 90       	pop	r0
 418:	1f 90       	pop	r1
 41a:	18 95       	reti

0000041c <__vector_21>:

ISR(ADC_vect)
{
 41c:	1f 92       	push	r1
 41e:	0f 92       	push	r0
 420:	0f b6       	in	r0, 0x3f	; 63
 422:	0f 92       	push	r0
 424:	11 24       	eor	r1, r1
 426:	2f 93       	push	r18
 428:	8f 93       	push	r24
 42a:	9f 93       	push	r25
 42c:	ef 93       	push	r30
 42e:	ff 93       	push	r31
	leitura_ADC = ADC; //cópia do valor ADC para uma variavél
 430:	e8 e7       	ldi	r30, 0x78	; 120
 432:	f0 e0       	ldi	r31, 0x00	; 0
 434:	80 81       	ld	r24, Z
 436:	91 81       	ldd	r25, Z+1	; 0x01
 438:	90 93 43 01 	sts	0x0143, r25	; 0x800143 <leitura_ADC+0x1>
 43c:	80 93 42 01 	sts	0x0142, r24	; 0x800142 <leitura_ADC>
	
	if (ADC==1023)
 440:	80 81       	ld	r24, Z
 442:	91 81       	ldd	r25, Z+1	; 0x01
 444:	8f 3f       	cpi	r24, 0xFF	; 255
 446:	93 40       	sbci	r25, 0x03	; 3
 448:	39 f4       	brne	.+14     	; 0x458 <__vector_21+0x3c>
	{
		aux_pwm = 255;
 44a:	8f ef       	ldi	r24, 0xFF	; 255
 44c:	90 e0       	ldi	r25, 0x00	; 0
 44e:	90 93 41 01 	sts	0x0141, r25	; 0x800141 <aux_pwm+0x1>
 452:	80 93 40 01 	sts	0x0140, r24	; 0x800140 <aux_pwm>
 456:	0c c0       	rjmp	.+24     	; 0x470 <__vector_21+0x54>
	}
	else
	{
		aux_pwm = (ADC/4);
 458:	80 91 78 00 	lds	r24, 0x0078	; 0x800078 <__TEXT_REGION_LENGTH__+0x7f8078>
 45c:	90 91 79 00 	lds	r25, 0x0079	; 0x800079 <__TEXT_REGION_LENGTH__+0x7f8079>
 460:	96 95       	lsr	r25
 462:	87 95       	ror	r24
 464:	96 95       	lsr	r25
 466:	87 95       	ror	r24
 468:	90 93 41 01 	sts	0x0141, r25	; 0x800141 <aux_pwm+0x1>
 46c:	80 93 40 01 	sts	0x0140, r24	; 0x800140 <aux_pwm>
	}
	
}
 470:	ff 91       	pop	r31
 472:	ef 91       	pop	r30
 474:	9f 91       	pop	r25
 476:	8f 91       	pop	r24
 478:	2f 91       	pop	r18
 47a:	0f 90       	pop	r0
 47c:	0f be       	out	0x3f, r0	; 63
 47e:	0f 90       	pop	r0
 480:	1f 90       	pop	r1
 482:	18 95       	reti

00000484 <main>:

int main(void)
{
		DDRC  = 0b11111110; //Definindo PC0 como entrada
 484:	8e ef       	ldi	r24, 0xFE	; 254
 486:	87 b9       	out	0x07, r24	; 7
		DDRB  = 0b11111111;
 488:	9f ef       	ldi	r25, 0xFF	; 255
 48a:	94 b9       	out	0x04, r25	; 4
		DDRD  = 0b01000001; // PD0 e PD6 como saídas
 48c:	91 e4       	ldi	r25, 0x41	; 65
 48e:	9a b9       	out	0x0a, r25	; 10
		PORTD = 0b11001101;
 490:	9d ec       	ldi	r25, 0xCD	; 205
 492:	9b b9       	out	0x0b, r25	; 11
		PORTC = 0b11111110; //Desabilita o pullup das entradas
 494:	88 b9       	out	0x08, r24	; 8
		
		TCCR0A = 0b00000010; // Habilita modo CTC do TC0
 496:	92 e0       	ldi	r25, 0x02	; 2
 498:	94 bd       	out	0x24, r25	; 36
		TCCR0B = 0b00000011; //Liga TC0 com prescaler = 64
 49a:	83 e0       	ldi	r24, 0x03	; 3
 49c:	85 bd       	out	0x25, r24	; 37
		OCR0A = 249; // Ajusta o comparador para o TC0 contar ate 249
 49e:	29 ef       	ldi	r18, 0xF9	; 249
 4a0:	27 bd       	out	0x27, r18	; 39
		TIMSK0 = 0b00000010; // Habilita a interrupção na igualdade de comparação OCR0A. A interrupção ocorre a cada 1ms = (64*(249+1))/16MHz
 4a2:	90 93 6e 00 	sts	0x006E, r25	; 0x80006e <__TEXT_REGION_LENGTH__+0x7f806e>
		
		EICRA = 0b00001010;
 4a6:	9a e0       	ldi	r25, 0x0A	; 10
 4a8:	90 93 69 00 	sts	0x0069, r25	; 0x800069 <__TEXT_REGION_LENGTH__+0x7f8069>
		EIMSK = 0b00000011;
 4ac:	8d bb       	out	0x1d, r24	; 29
		
		PCICR = 0b00000100; //Habilita a interrupção PCINT2
 4ae:	94 e0       	ldi	r25, 0x04	; 4
 4b0:	90 93 68 00 	sts	0x0068, r25	; 0x800068 <__TEXT_REGION_LENGTH__+0x7f8068>
		PCMSK2= 0b00110010; // Habilitação do pino D1, D4 e D5 na interrupção PCINT2
 4b4:	92 e3       	ldi	r25, 0x32	; 50
 4b6:	90 93 6d 00 	sts	0x006D, r25	; 0x80006d <__TEXT_REGION_LENGTH__+0x7f806d>
		
		ADMUX = 0b11000000; // Tensão interna de ref (1.1V)
 4ba:	90 ec       	ldi	r25, 0xC0	; 192
 4bc:	90 93 7c 00 	sts	0x007C, r25	; 0x80007c <__TEXT_REGION_LENGTH__+0x7f807c>
		ADCSRA = 0b11101111; //Habilita o AD, interrupção, conversão continua e coloca o prescaler em 128
 4c0:	9f ee       	ldi	r25, 0xEF	; 239
 4c2:	90 93 7a 00 	sts	0x007A, r25	; 0x80007a <__TEXT_REGION_LENGTH__+0x7f807a>
		ADCSRB = 0x00; //Modo de conversão contínua
 4c6:	10 92 7b 00 	sts	0x007B, r1	; 0x80007b <__TEXT_REGION_LENGTH__+0x7f807b>
		DIDR0 = 0b00111110; //Habilita o pino PC5 como entrada do  AD0
 4ca:	9e e3       	ldi	r25, 0x3E	; 62
 4cc:	90 93 7e 00 	sts	0x007E, r25	; 0x80007e <__TEXT_REGION_LENGTH__+0x7f807e>
		
		//Fast PWM, TOP = 0xFF, OC0A e OC0B habilitados
		TCCR0A = 0b10100011; //PWM não invertido nos pinos OC0A e OC0B
 4d0:	93 ea       	ldi	r25, 0xA3	; 163
 4d2:	94 bd       	out	0x24, r25	; 36
		TCCR0B = 0b00000011; //Liga TC0, prescaler = 64, fpwm = f0sc/(256*prescaler) = 16MHz/(256*64) = 976 Hz
 4d4:	85 bd       	out	0x25, r24	; 37
		//OCR0A = aux_pwm; //Controle do ciclo ativo do PWM OC0A (PD6), dutty = aux_pwm/256
		
		sei();
 4d6:	78 94       	sei
				
		nokia_lcd_init();
 4d8:	0e 94 2d 04 	call	0x85a	; 0x85a <nokia_lcd_init>
	
	while (1)
	{
		velocidade = 2*3.14*(tamroda/2)/100000*rpm*60; //Comprimento em Km = 2*3.14*(tamroda/2)/100000, como é 1:1 temos rpm*60 (Rotações por Hora)
 4dc:	60 91 00 01 	lds	r22, 0x0100	; 0x800100 <__DATA_REGION_ORIGIN__>
 4e0:	70 91 01 01 	lds	r23, 0x0101	; 0x800101 <__DATA_REGION_ORIGIN__+0x1>
 4e4:	76 95       	lsr	r23
 4e6:	67 95       	ror	r22
 4e8:	80 e0       	ldi	r24, 0x00	; 0
 4ea:	90 e0       	ldi	r25, 0x00	; 0
 4ec:	0e 94 1d 06 	call	0xc3a	; 0xc3a <__floatunsisf>
 4f0:	23 ec       	ldi	r18, 0xC3	; 195
 4f2:	35 ef       	ldi	r19, 0xF5	; 245
 4f4:	48 ec       	ldi	r20, 0xC8	; 200
 4f6:	50 e4       	ldi	r21, 0x40	; 64
 4f8:	0e 94 ab 06 	call	0xd56	; 0xd56 <__mulsf3>
 4fc:	20 e0       	ldi	r18, 0x00	; 0
 4fe:	30 e5       	ldi	r19, 0x50	; 80
 500:	43 ec       	ldi	r20, 0xC3	; 195
 502:	57 e4       	ldi	r21, 0x47	; 71
 504:	0e 94 7c 05 	call	0xaf8	; 0xaf8 <__divsf3>
 508:	6b 01       	movw	r12, r22
 50a:	7c 01       	movw	r14, r24
 50c:	60 91 4e 01 	lds	r22, 0x014E	; 0x80014e <rpm>
 510:	70 91 4f 01 	lds	r23, 0x014F	; 0x80014f <rpm+0x1>
 514:	80 e0       	ldi	r24, 0x00	; 0
 516:	90 e0       	ldi	r25, 0x00	; 0
 518:	0e 94 1d 06 	call	0xc3a	; 0xc3a <__floatunsisf>
 51c:	a7 01       	movw	r20, r14
 51e:	96 01       	movw	r18, r12
 520:	0e 94 ab 06 	call	0xd56	; 0xd56 <__mulsf3>
 524:	20 e0       	ldi	r18, 0x00	; 0
 526:	30 e0       	ldi	r19, 0x00	; 0
 528:	40 e7       	ldi	r20, 0x70	; 112
 52a:	52 e4       	ldi	r21, 0x42	; 66
 52c:	0e 94 ab 06 	call	0xd56	; 0xd56 <__mulsf3>
 530:	0e 94 ee 05 	call	0xbdc	; 0xbdc <__fixunssfsi>
 534:	70 93 4b 01 	sts	0x014B, r23	; 0x80014b <velocidade+0x1>
 538:	60 93 4a 01 	sts	0x014A, r22	; 0x80014a <velocidade>
		dist = aux_dist*velocidade/3600; // A cada 1s incremeta 1 em aux_dist assim temos X km por segundos
 53c:	40 91 44 01 	lds	r20, 0x0144	; 0x800144 <aux_dist>
 540:	50 91 45 01 	lds	r21, 0x0145	; 0x800145 <aux_dist+0x1>
 544:	46 9f       	mul	r20, r22
 546:	90 01       	movw	r18, r0
 548:	47 9f       	mul	r20, r23
 54a:	30 0d       	add	r19, r0
 54c:	56 9f       	mul	r21, r22
 54e:	30 0d       	add	r19, r0
 550:	11 24       	eor	r1, r1
 552:	c9 01       	movw	r24, r18
 554:	60 e1       	ldi	r22, 0x10	; 16
 556:	7e e0       	ldi	r23, 0x0E	; 14
 558:	0e 94 24 07 	call	0xe48	; 0xe48 <__udivmodhi4>
 55c:	70 93 4d 01 	sts	0x014D, r23	; 0x80014d <dist+0x1>
 560:	60 93 4c 01 	sts	0x014C, r22	; 0x80014c <dist>
		//aux_pwm = ADC*256/1023; // aux que compara com o estouto de 8 bits
		OCR0A = aux_pwm; //Controle do ciclo ativo do PWM OC0A (PD6), dutty = aux_pwm/256
 564:	80 91 40 01 	lds	r24, 0x0140	; 0x800140 <aux_pwm>
 568:	87 bd       	out	0x27, r24	; 39
		
		//nokia_lcd_init();
		nokia_lcd_clear();
 56a:	0e 94 85 04 	call	0x90a	; 0x90a <nokia_lcd_clear>
		nokia_lcd_write_string("COMP. DE BORDO",1);
 56e:	61 e0       	ldi	r22, 0x01	; 1
 570:	82 e0       	ldi	r24, 0x02	; 2
 572:	91 e0       	ldi	r25, 0x01	; 1
 574:	0e 94 4d 05 	call	0xa9a	; 0xa9a <nokia_lcd_write_string>
		nokia_lcd_set_cursor(0, 10);
 578:	6a e0       	ldi	r22, 0x0A	; 10
 57a:	80 e0       	ldi	r24, 0x00	; 0
 57c:	0e 94 5e 05 	call	0xabc	; 0xabc <nokia_lcd_set_cursor>
		nokia_lcd_write_string("Diam(cm):", 1);
 580:	61 e0       	ldi	r22, 0x01	; 1
 582:	81 e1       	ldi	r24, 0x11	; 17
 584:	91 e0       	ldi	r25, 0x01	; 1
 586:	0e 94 4d 05 	call	0xa9a	; 0xa9a <nokia_lcd_write_string>
    } else if (__radix < 2 || __radix > 36) {
	*__s = 0;
	return __s;
    } else {
	extern char *__itoa_ncheck (int, char *, unsigned char);
	return __itoa_ncheck (__val, __s, __radix);
 58a:	4a e0       	ldi	r20, 0x0A	; 10
 58c:	6a e4       	ldi	r22, 0x4A	; 74
 58e:	73 e0       	ldi	r23, 0x03	; 3
 590:	80 91 00 01 	lds	r24, 0x0100	; 0x800100 <__DATA_REGION_ORIGIN__>
 594:	90 91 01 01 	lds	r25, 0x0101	; 0x800101 <__DATA_REGION_ORIGIN__+0x1>
 598:	0e 94 47 07 	call	0xe8e	; 0xe8e <__itoa_ncheck>
		itoa(tamroda, &display_string, 10); //chamada da função para converter inteiros em string
		nokia_lcd_set_cursor(55, 10);
 59c:	6a e0       	ldi	r22, 0x0A	; 10
 59e:	87 e3       	ldi	r24, 0x37	; 55
 5a0:	0e 94 5e 05 	call	0xabc	; 0xabc <nokia_lcd_set_cursor>
		nokia_lcd_write_string(display_string, 1);
 5a4:	61 e0       	ldi	r22, 0x01	; 1
 5a6:	8a e4       	ldi	r24, 0x4A	; 74
 5a8:	93 e0       	ldi	r25, 0x03	; 3
 5aa:	0e 94 4d 05 	call	0xa9a	; 0xa9a <nokia_lcd_write_string>
		nokia_lcd_set_cursor(0, 20);
 5ae:	64 e1       	ldi	r22, 0x14	; 20
 5b0:	80 e0       	ldi	r24, 0x00	; 0
 5b2:	0e 94 5e 05 	call	0xabc	; 0xabc <nokia_lcd_set_cursor>
		nokia_lcd_write_string("RPM:", 1);
 5b6:	61 e0       	ldi	r22, 0x01	; 1
 5b8:	8b e1       	ldi	r24, 0x1B	; 27
 5ba:	91 e0       	ldi	r25, 0x01	; 1
 5bc:	0e 94 4d 05 	call	0xa9a	; 0xa9a <nokia_lcd_write_string>
 5c0:	4a e0       	ldi	r20, 0x0A	; 10
 5c2:	6a e4       	ldi	r22, 0x4A	; 74
 5c4:	73 e0       	ldi	r23, 0x03	; 3
 5c6:	80 91 4e 01 	lds	r24, 0x014E	; 0x80014e <rpm>
 5ca:	90 91 4f 01 	lds	r25, 0x014F	; 0x80014f <rpm+0x1>
 5ce:	0e 94 47 07 	call	0xe8e	; 0xe8e <__itoa_ncheck>
		itoa(rpm, &display_string, 10); //chamada da função para converter inteiros em string
		nokia_lcd_set_cursor(30, 20);
 5d2:	64 e1       	ldi	r22, 0x14	; 20
 5d4:	8e e1       	ldi	r24, 0x1E	; 30
 5d6:	0e 94 5e 05 	call	0xabc	; 0xabc <nokia_lcd_set_cursor>
		nokia_lcd_write_string(display_string, 1);
 5da:	61 e0       	ldi	r22, 0x01	; 1
 5dc:	8a e4       	ldi	r24, 0x4A	; 74
 5de:	93 e0       	ldi	r25, 0x03	; 3
 5e0:	0e 94 4d 05 	call	0xa9a	; 0xa9a <nokia_lcd_write_string>
 5e4:	4a e0       	ldi	r20, 0x0A	; 10
 5e6:	6a e4       	ldi	r22, 0x4A	; 74
 5e8:	73 e0       	ldi	r23, 0x03	; 3
 5ea:	80 91 4c 01 	lds	r24, 0x014C	; 0x80014c <dist>
 5ee:	90 91 4d 01 	lds	r25, 0x014D	; 0x80014d <dist+0x1>
 5f2:	0e 94 47 07 	call	0xe8e	; 0xe8e <__itoa_ncheck>
		itoa(dist, &display_string, 10); //chamada da função para converter inteiros em string
		nokia_lcd_set_cursor(55, 33);
 5f6:	61 e2       	ldi	r22, 0x21	; 33
 5f8:	87 e3       	ldi	r24, 0x37	; 55
 5fa:	0e 94 5e 05 	call	0xabc	; 0xabc <nokia_lcd_set_cursor>
		nokia_lcd_write_string(display_string, 2);
 5fe:	62 e0       	ldi	r22, 0x02	; 2
 600:	8a e4       	ldi	r24, 0x4A	; 74
 602:	93 e0       	ldi	r25, 0x03	; 3
 604:	0e 94 4d 05 	call	0xa9a	; 0xa9a <nokia_lcd_write_string>
		nokia_lcd_set_cursor(73, 35);
 608:	63 e2       	ldi	r22, 0x23	; 35
 60a:	89 e4       	ldi	r24, 0x49	; 73
 60c:	0e 94 5e 05 	call	0xabc	; 0xabc <nokia_lcd_set_cursor>
		nokia_lcd_write_string("Km", 1);
 610:	61 e0       	ldi	r22, 0x01	; 1
 612:	80 e2       	ldi	r24, 0x20	; 32
 614:	91 e0       	ldi	r25, 0x01	; 1
 616:	0e 94 4d 05 	call	0xa9a	; 0xa9a <nokia_lcd_write_string>
		
		nokia_lcd_set_cursor(0, 30);
 61a:	6e e1       	ldi	r22, 0x1E	; 30
 61c:	80 e0       	ldi	r24, 0x00	; 0
 61e:	0e 94 5e 05 	call	0xabc	; 0xabc <nokia_lcd_set_cursor>
		nokia_lcd_write_string("ADC:", 1);
 622:	61 e0       	ldi	r22, 0x01	; 1
 624:	83 e2       	ldi	r24, 0x23	; 35
 626:	91 e0       	ldi	r25, 0x01	; 1
 628:	0e 94 4d 05 	call	0xa9a	; 0xa9a <nokia_lcd_write_string>
 62c:	4a e0       	ldi	r20, 0x0A	; 10
 62e:	6a e4       	ldi	r22, 0x4A	; 74
 630:	73 e0       	ldi	r23, 0x03	; 3
 632:	80 91 42 01 	lds	r24, 0x0142	; 0x800142 <leitura_ADC>
 636:	90 91 43 01 	lds	r25, 0x0143	; 0x800143 <leitura_ADC+0x1>
 63a:	0e 94 47 07 	call	0xe8e	; 0xe8e <__itoa_ncheck>
		itoa(leitura_ADC, &display_string, 10); //chamada da função para converter inteiros em string
		nokia_lcd_set_cursor(25, 30);
 63e:	6e e1       	ldi	r22, 0x1E	; 30
 640:	89 e1       	ldi	r24, 0x19	; 25
 642:	0e 94 5e 05 	call	0xabc	; 0xabc <nokia_lcd_set_cursor>
		nokia_lcd_write_string(display_string, 1);
 646:	61 e0       	ldi	r22, 0x01	; 1
 648:	8a e4       	ldi	r24, 0x4A	; 74
 64a:	93 e0       	ldi	r25, 0x03	; 3
 64c:	0e 94 4d 05 	call	0xa9a	; 0xa9a <nokia_lcd_write_string>
				
		/*itoa(pqp, &display_string, 10); //chamada da função para converter inteiros em string
		nokia_lcd_set_cursor(0, 40);
		nokia_lcd_write_string(display_string, 1);*/
		
		if (pqp==5)
 650:	80 91 3e 01 	lds	r24, 0x013E	; 0x80013e <__data_end>
 654:	90 91 3f 01 	lds	r25, 0x013F	; 0x80013f <__data_end+0x1>
 658:	85 30       	cpi	r24, 0x05	; 5
 65a:	91 05       	cpc	r25, r1
 65c:	51 f4       	brne	.+20     	; 0x672 <main+0x1ee>
		{
			nokia_lcd_set_cursor(0, 40);
 65e:	68 e2       	ldi	r22, 0x28	; 40
 660:	80 e0       	ldi	r24, 0x00	; 0
 662:	0e 94 5e 05 	call	0xabc	; 0xabc <nokia_lcd_set_cursor>
			nokia_lcd_write_string("Modo:P", 1);
 666:	61 e0       	ldi	r22, 0x01	; 1
 668:	88 e2       	ldi	r24, 0x28	; 40
 66a:	91 e0       	ldi	r25, 0x01	; 1
 66c:	0e 94 4d 05 	call	0xa9a	; 0xa9a <nokia_lcd_write_string>
 670:	18 c0       	rjmp	.+48     	; 0x6a2 <main+0x21e>
		}
			else if (pqp==11)
 672:	8b 30       	cpi	r24, 0x0B	; 11
 674:	91 05       	cpc	r25, r1
 676:	51 f4       	brne	.+20     	; 0x68c <main+0x208>
			{
				nokia_lcd_set_cursor(0, 40);
 678:	68 e2       	ldi	r22, 0x28	; 40
 67a:	80 e0       	ldi	r24, 0x00	; 0
 67c:	0e 94 5e 05 	call	0xabc	; 0xabc <nokia_lcd_set_cursor>
				nokia_lcd_write_string("Modo:D", 1);
 680:	61 e0       	ldi	r22, 0x01	; 1
 682:	8f e2       	ldi	r24, 0x2F	; 47
 684:	91 e0       	ldi	r25, 0x01	; 1
 686:	0e 94 4d 05 	call	0xa9a	; 0xa9a <nokia_lcd_write_string>
 68a:	0b c0       	rjmp	.+22     	; 0x6a2 <main+0x21e>
			}
			else if (pqp==13)
 68c:	0d 97       	sbiw	r24, 0x0d	; 13
 68e:	49 f4       	brne	.+18     	; 0x6a2 <main+0x21e>
			{
				nokia_lcd_set_cursor(0, 40);
 690:	68 e2       	ldi	r22, 0x28	; 40
 692:	80 e0       	ldi	r24, 0x00	; 0
 694:	0e 94 5e 05 	call	0xabc	; 0xabc <nokia_lcd_set_cursor>
				nokia_lcd_write_string("Modo:R", 1);
 698:	61 e0       	ldi	r22, 0x01	; 1
 69a:	86 e3       	ldi	r24, 0x36	; 54
 69c:	91 e0       	ldi	r25, 0x01	; 1
 69e:	0e 94 4d 05 	call	0xa9a	; 0xa9a <nokia_lcd_write_string>
			}
				
		nokia_lcd_render();
 6a2:	0e 94 63 05 	call	0xac6	; 0xac6 <nokia_lcd_render>
	#else
		//round up by default
		__ticks_dc = (uint32_t)(ceil(fabs(__tmp)));
	#endif

	__builtin_avr_delay_cycles(__ticks_dc);
 6a6:	8f ed       	ldi	r24, 0xDF	; 223
 6a8:	9e e2       	ldi	r25, 0x2E	; 46
 6aa:	01 97       	sbiw	r24, 0x01	; 1
 6ac:	f1 f7       	brne	.-4      	; 0x6aa <main+0x226>
 6ae:	00 c0       	rjmp	.+0      	; 0x6b0 <main+0x22c>
 6b0:	00 00       	nop
		_delay_ms(tem_delay);
	
		PORTB &= 0b10000000;		
 6b2:	85 b1       	in	r24, 0x05	; 5
 6b4:	80 78       	andi	r24, 0x80	; 128
 6b6:	85 b9       	out	0x05, r24	; 5
		PORTB |= 0b01100000;
 6b8:	85 b1       	in	r24, 0x05	; 5
 6ba:	80 66       	ori	r24, 0x60	; 96
 6bc:	85 b9       	out	0x05, r24	; 5
		PORTB |= (((velocidade/1)%10) & 0b00001111);
 6be:	45 b1       	in	r20, 0x05	; 5
 6c0:	e0 91 4a 01 	lds	r30, 0x014A	; 0x80014a <velocidade>
 6c4:	f0 91 4b 01 	lds	r31, 0x014B	; 0x80014b <velocidade+0x1>
 6c8:	9f 01       	movw	r18, r30
 6ca:	ad ec       	ldi	r26, 0xCD	; 205
 6cc:	bc ec       	ldi	r27, 0xCC	; 204
 6ce:	0e 94 38 07 	call	0xe70	; 0xe70 <__umulhisi3>
 6d2:	96 95       	lsr	r25
 6d4:	87 95       	ror	r24
 6d6:	96 95       	lsr	r25
 6d8:	87 95       	ror	r24
 6da:	96 95       	lsr	r25
 6dc:	87 95       	ror	r24
 6de:	9c 01       	movw	r18, r24
 6e0:	22 0f       	add	r18, r18
 6e2:	33 1f       	adc	r19, r19
 6e4:	88 0f       	add	r24, r24
 6e6:	99 1f       	adc	r25, r25
 6e8:	88 0f       	add	r24, r24
 6ea:	99 1f       	adc	r25, r25
 6ec:	88 0f       	add	r24, r24
 6ee:	99 1f       	adc	r25, r25
 6f0:	82 0f       	add	r24, r18
 6f2:	93 1f       	adc	r25, r19
 6f4:	9f 01       	movw	r18, r30
 6f6:	28 1b       	sub	r18, r24
 6f8:	39 0b       	sbc	r19, r25
 6fa:	c9 01       	movw	r24, r18
 6fc:	8f 70       	andi	r24, 0x0F	; 15
 6fe:	84 2b       	or	r24, r20
 700:	85 b9       	out	0x05, r24	; 5
 702:	8f ed       	ldi	r24, 0xDF	; 223
 704:	9e e2       	ldi	r25, 0x2E	; 46
 706:	01 97       	sbiw	r24, 0x01	; 1
 708:	f1 f7       	brne	.-4      	; 0x706 <main+0x282>
 70a:	00 c0       	rjmp	.+0      	; 0x70c <main+0x288>
 70c:	00 00       	nop
		_delay_ms(tem_delay);
		
		PORTB &= 0b10000000;
 70e:	85 b1       	in	r24, 0x05	; 5
 710:	80 78       	andi	r24, 0x80	; 128
 712:	85 b9       	out	0x05, r24	; 5
		PORTB |= 0b01010000;
 714:	85 b1       	in	r24, 0x05	; 5
 716:	80 65       	ori	r24, 0x50	; 80
 718:	85 b9       	out	0x05, r24	; 5
		PORTB |= (((velocidade/10)%10) & 0b00001111);
 71a:	45 b1       	in	r20, 0x05	; 5
 71c:	20 91 4a 01 	lds	r18, 0x014A	; 0x80014a <velocidade>
 720:	30 91 4b 01 	lds	r19, 0x014B	; 0x80014b <velocidade+0x1>
 724:	0e 94 38 07 	call	0xe70	; 0xe70 <__umulhisi3>
 728:	fc 01       	movw	r30, r24
 72a:	f6 95       	lsr	r31
 72c:	e7 95       	ror	r30
 72e:	f6 95       	lsr	r31
 730:	e7 95       	ror	r30
 732:	f6 95       	lsr	r31
 734:	e7 95       	ror	r30
 736:	9f 01       	movw	r18, r30
 738:	0e 94 38 07 	call	0xe70	; 0xe70 <__umulhisi3>
 73c:	96 95       	lsr	r25
 73e:	87 95       	ror	r24
 740:	96 95       	lsr	r25
 742:	87 95       	ror	r24
 744:	96 95       	lsr	r25
 746:	87 95       	ror	r24
 748:	9c 01       	movw	r18, r24
 74a:	22 0f       	add	r18, r18
 74c:	33 1f       	adc	r19, r19
 74e:	88 0f       	add	r24, r24
 750:	99 1f       	adc	r25, r25
 752:	88 0f       	add	r24, r24
 754:	99 1f       	adc	r25, r25
 756:	88 0f       	add	r24, r24
 758:	99 1f       	adc	r25, r25
 75a:	82 0f       	add	r24, r18
 75c:	93 1f       	adc	r25, r19
 75e:	9f 01       	movw	r18, r30
 760:	28 1b       	sub	r18, r24
 762:	39 0b       	sbc	r19, r25
 764:	c9 01       	movw	r24, r18
 766:	8f 70       	andi	r24, 0x0F	; 15
 768:	84 2b       	or	r24, r20
 76a:	85 b9       	out	0x05, r24	; 5
 76c:	8f ed       	ldi	r24, 0xDF	; 223
 76e:	9e e2       	ldi	r25, 0x2E	; 46
 770:	01 97       	sbiw	r24, 0x01	; 1
 772:	f1 f7       	brne	.-4      	; 0x770 <main+0x2ec>
 774:	00 c0       	rjmp	.+0      	; 0x776 <main+0x2f2>
 776:	00 00       	nop
		_delay_ms(tem_delay);
		
		PORTB &= 0b10000000;
 778:	85 b1       	in	r24, 0x05	; 5
 77a:	80 78       	andi	r24, 0x80	; 128
 77c:	85 b9       	out	0x05, r24	; 5
		PORTB |= 0b00110000;
 77e:	85 b1       	in	r24, 0x05	; 5
 780:	80 63       	ori	r24, 0x30	; 48
 782:	85 b9       	out	0x05, r24	; 5
		PORTB |= (((velocidade/100)%10) & 0b00001111);
 784:	45 b1       	in	r20, 0x05	; 5
 786:	20 91 4a 01 	lds	r18, 0x014A	; 0x80014a <velocidade>
 78a:	30 91 4b 01 	lds	r19, 0x014B	; 0x80014b <velocidade+0x1>
 78e:	36 95       	lsr	r19
 790:	27 95       	ror	r18
 792:	36 95       	lsr	r19
 794:	27 95       	ror	r18
 796:	ab e7       	ldi	r26, 0x7B	; 123
 798:	b4 e1       	ldi	r27, 0x14	; 20
 79a:	0e 94 38 07 	call	0xe70	; 0xe70 <__umulhisi3>
 79e:	fc 01       	movw	r30, r24
 7a0:	f6 95       	lsr	r31
 7a2:	e7 95       	ror	r30
 7a4:	9f 01       	movw	r18, r30
 7a6:	ad ec       	ldi	r26, 0xCD	; 205
 7a8:	bc ec       	ldi	r27, 0xCC	; 204
 7aa:	0e 94 38 07 	call	0xe70	; 0xe70 <__umulhisi3>
 7ae:	96 95       	lsr	r25
 7b0:	87 95       	ror	r24
 7b2:	96 95       	lsr	r25
 7b4:	87 95       	ror	r24
 7b6:	96 95       	lsr	r25
 7b8:	87 95       	ror	r24
 7ba:	9c 01       	movw	r18, r24
 7bc:	22 0f       	add	r18, r18
 7be:	33 1f       	adc	r19, r19
 7c0:	88 0f       	add	r24, r24
 7c2:	99 1f       	adc	r25, r25
 7c4:	88 0f       	add	r24, r24
 7c6:	99 1f       	adc	r25, r25
 7c8:	88 0f       	add	r24, r24
 7ca:	99 1f       	adc	r25, r25
 7cc:	82 0f       	add	r24, r18
 7ce:	93 1f       	adc	r25, r19
 7d0:	9f 01       	movw	r18, r30
 7d2:	28 1b       	sub	r18, r24
 7d4:	39 0b       	sbc	r19, r25
 7d6:	c9 01       	movw	r24, r18
 7d8:	8f 70       	andi	r24, 0x0F	; 15
 7da:	84 2b       	or	r24, r20
 7dc:	85 b9       	out	0x05, r24	; 5
 7de:	8f ed       	ldi	r24, 0xDF	; 223
 7e0:	9e e2       	ldi	r25, 0x2E	; 46
 7e2:	01 97       	sbiw	r24, 0x01	; 1
 7e4:	f1 f7       	brne	.-4      	; 0x7e2 <main+0x35e>
 7e6:	00 c0       	rjmp	.+0      	; 0x7e8 <main+0x364>
 7e8:	00 00       	nop
 7ea:	78 ce       	rjmp	.-784    	; 0x4dc <main+0x58>

000007ec <write>:
		nokia_lcd.screen[i] = 0x00;
}

void nokia_lcd_power(uint8_t on)
{
	write_cmd(on ? 0x20 : 0x24);
 7ec:	98 b1       	in	r25, 0x08	; 8
 7ee:	9d 7f       	andi	r25, 0xFD	; 253
 7f0:	98 b9       	out	0x08, r25	; 8
 7f2:	66 23       	and	r22, r22
 7f4:	29 f0       	breq	.+10     	; 0x800 <__DATA_REGION_LENGTH__>
 7f6:	98 b1       	in	r25, 0x08	; 8
 7f8:	98 60       	ori	r25, 0x08	; 8
 7fa:	98 b9       	out	0x08, r25	; 8
 7fc:	90 e0       	ldi	r25, 0x00	; 0
 7fe:	1f c0       	rjmp	.+62     	; 0x83e <__DATA_REGION_LENGTH__+0x3e>
 800:	98 b1       	in	r25, 0x08	; 8
 802:	97 7f       	andi	r25, 0xF7	; 247
 804:	98 b9       	out	0x08, r25	; 8
 806:	fa cf       	rjmp	.-12     	; 0x7fc <write+0x10>
 808:	47 e0       	ldi	r20, 0x07	; 7
 80a:	50 e0       	ldi	r21, 0x00	; 0
 80c:	49 1b       	sub	r20, r25
 80e:	51 09       	sbc	r21, r1
 810:	28 2f       	mov	r18, r24
 812:	30 e0       	ldi	r19, 0x00	; 0
 814:	02 c0       	rjmp	.+4      	; 0x81a <__DATA_REGION_LENGTH__+0x1a>
 816:	35 95       	asr	r19
 818:	27 95       	ror	r18
 81a:	4a 95       	dec	r20
 81c:	e2 f7       	brpl	.-8      	; 0x816 <__DATA_REGION_LENGTH__+0x16>
 81e:	20 ff       	sbrs	r18, 0
 820:	04 c0       	rjmp	.+8      	; 0x82a <__DATA_REGION_LENGTH__+0x2a>
 822:	28 b1       	in	r18, 0x08	; 8
 824:	20 61       	ori	r18, 0x10	; 16
 826:	28 b9       	out	0x08, r18	; 8
 828:	03 c0       	rjmp	.+6      	; 0x830 <__DATA_REGION_LENGTH__+0x30>
 82a:	28 b1       	in	r18, 0x08	; 8
 82c:	2f 7e       	andi	r18, 0xEF	; 239
 82e:	28 b9       	out	0x08, r18	; 8
 830:	28 b1       	in	r18, 0x08	; 8
 832:	20 62       	ori	r18, 0x20	; 32
 834:	28 b9       	out	0x08, r18	; 8
 836:	28 b1       	in	r18, 0x08	; 8
 838:	2f 7d       	andi	r18, 0xDF	; 223
 83a:	28 b9       	out	0x08, r18	; 8
 83c:	9f 5f       	subi	r25, 0xFF	; 255
 83e:	98 30       	cpi	r25, 0x08	; 8
 840:	18 f3       	brcs	.-58     	; 0x808 <__DATA_REGION_LENGTH__+0x8>
 842:	88 b1       	in	r24, 0x08	; 8
 844:	82 60       	ori	r24, 0x02	; 2
 846:	88 b9       	out	0x08, r24	; 8
 848:	08 95       	ret

0000084a <write_cmd>:
 84a:	60 e0       	ldi	r22, 0x00	; 0
 84c:	0e 94 f6 03 	call	0x7ec	; 0x7ec <write>
 850:	08 95       	ret

00000852 <write_data>:
 852:	61 e0       	ldi	r22, 0x01	; 1
 854:	0e 94 f6 03 	call	0x7ec	; 0x7ec <write>
 858:	08 95       	ret

0000085a <nokia_lcd_init>:
 85a:	cf 93       	push	r28
 85c:	df 93       	push	r29
 85e:	87 b1       	in	r24, 0x07	; 7
 860:	82 60       	ori	r24, 0x02	; 2
 862:	87 b9       	out	0x07, r24	; 7
 864:	87 b1       	in	r24, 0x07	; 7
 866:	84 60       	ori	r24, 0x04	; 4
 868:	87 b9       	out	0x07, r24	; 7
 86a:	87 b1       	in	r24, 0x07	; 7
 86c:	88 60       	ori	r24, 0x08	; 8
 86e:	87 b9       	out	0x07, r24	; 7
 870:	87 b1       	in	r24, 0x07	; 7
 872:	80 61       	ori	r24, 0x10	; 16
 874:	87 b9       	out	0x07, r24	; 7
 876:	87 b1       	in	r24, 0x07	; 7
 878:	80 62       	ori	r24, 0x20	; 32
 87a:	87 b9       	out	0x07, r24	; 7
 87c:	88 b1       	in	r24, 0x08	; 8
 87e:	84 60       	ori	r24, 0x04	; 4
 880:	88 b9       	out	0x08, r24	; 8
 882:	88 b1       	in	r24, 0x08	; 8
 884:	82 60       	ori	r24, 0x02	; 2
 886:	88 b9       	out	0x08, r24	; 8
 888:	83 ec       	ldi	r24, 0xC3	; 195
 88a:	99 e0       	ldi	r25, 0x09	; 9
 88c:	01 97       	sbiw	r24, 0x01	; 1
 88e:	f1 f7       	brne	.-4      	; 0x88c <nokia_lcd_init+0x32>
 890:	00 c0       	rjmp	.+0      	; 0x892 <nokia_lcd_init+0x38>
 892:	00 00       	nop
 894:	88 b1       	in	r24, 0x08	; 8
 896:	8b 7f       	andi	r24, 0xFB	; 251
 898:	88 b9       	out	0x08, r24	; 8
 89a:	8b e5       	ldi	r24, 0x5B	; 91
 89c:	94 e4       	ldi	r25, 0x44	; 68
 89e:	01 97       	sbiw	r24, 0x01	; 1
 8a0:	f1 f7       	brne	.-4      	; 0x89e <nokia_lcd_init+0x44>
 8a2:	00 c0       	rjmp	.+0      	; 0x8a4 <nokia_lcd_init+0x4a>
 8a4:	00 00       	nop
 8a6:	88 b1       	in	r24, 0x08	; 8
 8a8:	84 60       	ori	r24, 0x04	; 4
 8aa:	88 b9       	out	0x08, r24	; 8
 8ac:	88 b1       	in	r24, 0x08	; 8
 8ae:	8d 7f       	andi	r24, 0xFD	; 253
 8b0:	88 b9       	out	0x08, r24	; 8
 8b2:	81 e2       	ldi	r24, 0x21	; 33
 8b4:	0e 94 25 04 	call	0x84a	; 0x84a <write_cmd>
 8b8:	83 e1       	ldi	r24, 0x13	; 19
 8ba:	0e 94 25 04 	call	0x84a	; 0x84a <write_cmd>
 8be:	86 e0       	ldi	r24, 0x06	; 6
 8c0:	0e 94 25 04 	call	0x84a	; 0x84a <write_cmd>
 8c4:	82 ec       	ldi	r24, 0xC2	; 194
 8c6:	0e 94 25 04 	call	0x84a	; 0x84a <write_cmd>
 8ca:	80 e2       	ldi	r24, 0x20	; 32
 8cc:	0e 94 25 04 	call	0x84a	; 0x84a <write_cmd>
 8d0:	89 e0       	ldi	r24, 0x09	; 9
 8d2:	0e 94 25 04 	call	0x84a	; 0x84a <write_cmd>
 8d6:	80 e8       	ldi	r24, 0x80	; 128
 8d8:	0e 94 25 04 	call	0x84a	; 0x84a <write_cmd>
 8dc:	80 e4       	ldi	r24, 0x40	; 64
 8de:	0e 94 25 04 	call	0x84a	; 0x84a <write_cmd>
 8e2:	c0 e0       	ldi	r28, 0x00	; 0
 8e4:	d0 e0       	ldi	r29, 0x00	; 0
 8e6:	04 c0       	rjmp	.+8      	; 0x8f0 <nokia_lcd_init+0x96>
 8e8:	80 e0       	ldi	r24, 0x00	; 0
 8ea:	0e 94 29 04 	call	0x852	; 0x852 <write_data>
 8ee:	21 96       	adiw	r28, 0x01	; 1
 8f0:	c8 3f       	cpi	r28, 0xF8	; 248
 8f2:	91 e0       	ldi	r25, 0x01	; 1
 8f4:	d9 07       	cpc	r29, r25
 8f6:	c0 f3       	brcs	.-16     	; 0x8e8 <nokia_lcd_init+0x8e>
 8f8:	88 e0       	ldi	r24, 0x08	; 8
 8fa:	0e 94 25 04 	call	0x84a	; 0x84a <write_cmd>
 8fe:	8c e0       	ldi	r24, 0x0C	; 12
 900:	0e 94 25 04 	call	0x84a	; 0x84a <write_cmd>
 904:	df 91       	pop	r29
 906:	cf 91       	pop	r28
 908:	08 95       	ret

0000090a <nokia_lcd_clear>:
 90a:	80 e8       	ldi	r24, 0x80	; 128
 90c:	0e 94 25 04 	call	0x84a	; 0x84a <write_cmd>
 910:	80 e4       	ldi	r24, 0x40	; 64
 912:	0e 94 25 04 	call	0x84a	; 0x84a <write_cmd>
 916:	10 92 48 03 	sts	0x0348, r1	; 0x800348 <nokia_lcd+0x1f8>
 91a:	10 92 49 03 	sts	0x0349, r1	; 0x800349 <nokia_lcd+0x1f9>
 91e:	80 e0       	ldi	r24, 0x00	; 0
 920:	90 e0       	ldi	r25, 0x00	; 0
 922:	05 c0       	rjmp	.+10     	; 0x92e <nokia_lcd_clear+0x24>
 924:	fc 01       	movw	r30, r24
 926:	e0 5b       	subi	r30, 0xB0	; 176
 928:	fe 4f       	sbci	r31, 0xFE	; 254
 92a:	10 82       	st	Z, r1
 92c:	01 96       	adiw	r24, 0x01	; 1
 92e:	88 3f       	cpi	r24, 0xF8	; 248
 930:	21 e0       	ldi	r18, 0x01	; 1
 932:	92 07       	cpc	r25, r18
 934:	b8 f3       	brcs	.-18     	; 0x924 <nokia_lcd_clear+0x1a>
 936:	08 95       	ret

00000938 <nokia_lcd_set_pixel>:
}

void nokia_lcd_set_pixel(uint8_t x, uint8_t y, uint8_t value)
{
	uint8_t *byte = &nokia_lcd.screen[y/8*84+x];
 938:	26 2f       	mov	r18, r22
 93a:	26 95       	lsr	r18
 93c:	26 95       	lsr	r18
 93e:	26 95       	lsr	r18
 940:	90 e0       	ldi	r25, 0x00	; 0
 942:	34 e5       	ldi	r19, 0x54	; 84
 944:	23 9f       	mul	r18, r19
 946:	80 0d       	add	r24, r0
 948:	91 1d       	adc	r25, r1
 94a:	11 24       	eor	r1, r1
	if (value)
 94c:	44 23       	and	r20, r20
 94e:	79 f0       	breq	.+30     	; 0x96e <nokia_lcd_set_pixel+0x36>
		*byte |= (1 << (y % 8));
 950:	67 70       	andi	r22, 0x07	; 7
 952:	21 e0       	ldi	r18, 0x01	; 1
 954:	30 e0       	ldi	r19, 0x00	; 0
 956:	02 c0       	rjmp	.+4      	; 0x95c <nokia_lcd_set_pixel+0x24>
 958:	22 0f       	add	r18, r18
 95a:	33 1f       	adc	r19, r19
 95c:	6a 95       	dec	r22
 95e:	e2 f7       	brpl	.-8      	; 0x958 <nokia_lcd_set_pixel+0x20>
 960:	fc 01       	movw	r30, r24
 962:	e0 5b       	subi	r30, 0xB0	; 176
 964:	fe 4f       	sbci	r31, 0xFE	; 254
 966:	80 81       	ld	r24, Z
 968:	28 2b       	or	r18, r24
 96a:	20 83       	st	Z, r18
 96c:	08 95       	ret
	else
		*byte &= ~(1 << (y %8 ));
 96e:	67 70       	andi	r22, 0x07	; 7
 970:	21 e0       	ldi	r18, 0x01	; 1
 972:	30 e0       	ldi	r19, 0x00	; 0
 974:	02 c0       	rjmp	.+4      	; 0x97a <nokia_lcd_set_pixel+0x42>
 976:	22 0f       	add	r18, r18
 978:	33 1f       	adc	r19, r19
 97a:	6a 95       	dec	r22
 97c:	e2 f7       	brpl	.-8      	; 0x976 <nokia_lcd_set_pixel+0x3e>
 97e:	fc 01       	movw	r30, r24
 980:	e0 5b       	subi	r30, 0xB0	; 176
 982:	fe 4f       	sbci	r31, 0xFE	; 254
 984:	20 95       	com	r18
 986:	80 81       	ld	r24, Z
 988:	28 23       	and	r18, r24
 98a:	20 83       	st	Z, r18
 98c:	08 95       	ret

0000098e <nokia_lcd_write_char>:
}

void nokia_lcd_write_char(char code, uint8_t scale)
{
 98e:	ef 92       	push	r14
 990:	ff 92       	push	r15
 992:	0f 93       	push	r16
 994:	1f 93       	push	r17
 996:	cf 93       	push	r28
 998:	df 93       	push	r29
 99a:	e8 2e       	mov	r14, r24
 99c:	f6 2e       	mov	r15, r22
	register uint8_t x, y;

	for (x = 0; x < 5*scale; x++)
 99e:	00 e0       	ldi	r16, 0x00	; 0
 9a0:	45 c0       	rjmp	.+138    	; 0xa2c <nokia_lcd_write_char+0x9e>
		for (y = 0; y < 7*scale; y++)
			if (pgm_read_byte(&CHARSET[code-32][x/scale]) & (1 << y/scale))
 9a2:	2e 2d       	mov	r18, r14
 9a4:	30 e0       	ldi	r19, 0x00	; 0
 9a6:	20 52       	subi	r18, 0x20	; 32
 9a8:	31 09       	sbc	r19, r1
 9aa:	80 2f       	mov	r24, r16
 9ac:	6f 2d       	mov	r22, r15
 9ae:	0e 94 18 07 	call	0xe30	; 0xe30 <__udivmodqi4>
 9b2:	f9 01       	movw	r30, r18
 9b4:	ee 0f       	add	r30, r30
 9b6:	ff 1f       	adc	r31, r31
 9b8:	ee 0f       	add	r30, r30
 9ba:	ff 1f       	adc	r31, r31
 9bc:	e2 0f       	add	r30, r18
 9be:	f3 1f       	adc	r31, r19
 9c0:	e8 0f       	add	r30, r24
 9c2:	f1 1d       	adc	r31, r1
 9c4:	e8 59       	subi	r30, 0x98	; 152
 9c6:	ff 4f       	sbci	r31, 0xFF	; 255
 9c8:	e4 91       	lpm	r30, Z
 9ca:	81 2f       	mov	r24, r17
 9cc:	0e 94 18 07 	call	0xe30	; 0xe30 <__udivmodqi4>
 9d0:	f0 e0       	ldi	r31, 0x00	; 0
 9d2:	02 c0       	rjmp	.+4      	; 0x9d8 <nokia_lcd_write_char+0x4a>
 9d4:	f5 95       	asr	r31
 9d6:	e7 95       	ror	r30
 9d8:	8a 95       	dec	r24
 9da:	e2 f7       	brpl	.-8      	; 0x9d4 <nokia_lcd_write_char+0x46>
 9dc:	e0 ff       	sbrs	r30, 0
 9de:	0a c0       	rjmp	.+20     	; 0x9f4 <nokia_lcd_write_char+0x66>
				nokia_lcd_set_pixel(nokia_lcd.cursor_x + x, nokia_lcd.cursor_y + y, 1);
 9e0:	60 91 49 03 	lds	r22, 0x0349	; 0x800349 <nokia_lcd+0x1f9>
 9e4:	80 91 48 03 	lds	r24, 0x0348	; 0x800348 <nokia_lcd+0x1f8>
 9e8:	61 0f       	add	r22, r17
 9ea:	41 e0       	ldi	r20, 0x01	; 1
 9ec:	80 0f       	add	r24, r16
 9ee:	0e 94 9c 04 	call	0x938	; 0x938 <nokia_lcd_set_pixel>
 9f2:	09 c0       	rjmp	.+18     	; 0xa06 <nokia_lcd_write_char+0x78>
			else
				nokia_lcd_set_pixel(nokia_lcd.cursor_x + x, nokia_lcd.cursor_y + y, 0);
 9f4:	60 91 49 03 	lds	r22, 0x0349	; 0x800349 <nokia_lcd+0x1f9>
 9f8:	80 91 48 03 	lds	r24, 0x0348	; 0x800348 <nokia_lcd+0x1f8>
 9fc:	61 0f       	add	r22, r17
 9fe:	40 e0       	ldi	r20, 0x00	; 0
 a00:	80 0f       	add	r24, r16
 a02:	0e 94 9c 04 	call	0x938	; 0x938 <nokia_lcd_set_pixel>
void nokia_lcd_write_char(char code, uint8_t scale)
{
	register uint8_t x, y;

	for (x = 0; x < 5*scale; x++)
		for (y = 0; y < 7*scale; y++)
 a06:	1f 5f       	subi	r17, 0xFF	; 255
 a08:	01 c0       	rjmp	.+2      	; 0xa0c <nokia_lcd_write_char+0x7e>
 a0a:	10 e0       	ldi	r17, 0x00	; 0
 a0c:	21 2f       	mov	r18, r17
 a0e:	30 e0       	ldi	r19, 0x00	; 0
 a10:	ce 01       	movw	r24, r28
 a12:	88 0f       	add	r24, r24
 a14:	99 1f       	adc	r25, r25
 a16:	88 0f       	add	r24, r24
 a18:	99 1f       	adc	r25, r25
 a1a:	88 0f       	add	r24, r24
 a1c:	99 1f       	adc	r25, r25
 a1e:	8c 1b       	sub	r24, r28
 a20:	9d 0b       	sbc	r25, r29
 a22:	28 17       	cp	r18, r24
 a24:	39 07       	cpc	r19, r25
 a26:	0c f4       	brge	.+2      	; 0xa2a <nokia_lcd_write_char+0x9c>
 a28:	bc cf       	rjmp	.-136    	; 0x9a2 <nokia_lcd_write_char+0x14>

void nokia_lcd_write_char(char code, uint8_t scale)
{
	register uint8_t x, y;

	for (x = 0; x < 5*scale; x++)
 a2a:	0f 5f       	subi	r16, 0xFF	; 255
 a2c:	20 2f       	mov	r18, r16
 a2e:	30 e0       	ldi	r19, 0x00	; 0
 a30:	cf 2d       	mov	r28, r15
 a32:	d0 e0       	ldi	r29, 0x00	; 0
 a34:	ce 01       	movw	r24, r28
 a36:	88 0f       	add	r24, r24
 a38:	99 1f       	adc	r25, r25
 a3a:	88 0f       	add	r24, r24
 a3c:	99 1f       	adc	r25, r25
 a3e:	8c 0f       	add	r24, r28
 a40:	9d 1f       	adc	r25, r29
 a42:	28 17       	cp	r18, r24
 a44:	39 07       	cpc	r19, r25
 a46:	0c f3       	brlt	.-62     	; 0xa0a <nokia_lcd_write_char+0x7c>
			if (pgm_read_byte(&CHARSET[code-32][x/scale]) & (1 << y/scale))
				nokia_lcd_set_pixel(nokia_lcd.cursor_x + x, nokia_lcd.cursor_y + y, 1);
			else
				nokia_lcd_set_pixel(nokia_lcd.cursor_x + x, nokia_lcd.cursor_y + y, 0);

	nokia_lcd.cursor_x += 5*scale + 1;
 a48:	e8 e4       	ldi	r30, 0x48	; 72
 a4a:	f3 e0       	ldi	r31, 0x03	; 3
 a4c:	8f 2d       	mov	r24, r15
 a4e:	88 0f       	add	r24, r24
 a50:	88 0f       	add	r24, r24
 a52:	8f 0d       	add	r24, r15
 a54:	90 81       	ld	r25, Z
 a56:	89 0f       	add	r24, r25
 a58:	8f 5f       	subi	r24, 0xFF	; 255
 a5a:	80 83       	st	Z, r24
	if (nokia_lcd.cursor_x >= 84) {
 a5c:	84 35       	cpi	r24, 0x54	; 84
 a5e:	70 f0       	brcs	.+28     	; 0xa7c <nokia_lcd_write_char+0xee>
		nokia_lcd.cursor_x = 0;
 a60:	10 92 48 03 	sts	0x0348, r1	; 0x800348 <nokia_lcd+0x1f8>
		nokia_lcd.cursor_y += 7*scale + 1;
 a64:	e9 e4       	ldi	r30, 0x49	; 73
 a66:	f3 e0       	ldi	r31, 0x03	; 3
 a68:	8f 2d       	mov	r24, r15
 a6a:	88 0f       	add	r24, r24
 a6c:	88 0f       	add	r24, r24
 a6e:	88 0f       	add	r24, r24
 a70:	98 2f       	mov	r25, r24
 a72:	9f 19       	sub	r25, r15
 a74:	80 81       	ld	r24, Z
 a76:	89 0f       	add	r24, r25
 a78:	8f 5f       	subi	r24, 0xFF	; 255
 a7a:	80 83       	st	Z, r24
	}
	if (nokia_lcd.cursor_y >= 48) {
 a7c:	80 91 49 03 	lds	r24, 0x0349	; 0x800349 <nokia_lcd+0x1f9>
 a80:	80 33       	cpi	r24, 0x30	; 48
 a82:	20 f0       	brcs	.+8      	; 0xa8c <nokia_lcd_write_char+0xfe>
		nokia_lcd.cursor_x = 0;
 a84:	10 92 48 03 	sts	0x0348, r1	; 0x800348 <nokia_lcd+0x1f8>
		nokia_lcd.cursor_y = 0;
 a88:	10 92 49 03 	sts	0x0349, r1	; 0x800349 <nokia_lcd+0x1f9>
	}
}
 a8c:	df 91       	pop	r29
 a8e:	cf 91       	pop	r28
 a90:	1f 91       	pop	r17
 a92:	0f 91       	pop	r16
 a94:	ff 90       	pop	r15
 a96:	ef 90       	pop	r14
 a98:	08 95       	ret

00000a9a <nokia_lcd_write_string>:

void nokia_lcd_write_string(const char *str, uint8_t scale)
{
 a9a:	1f 93       	push	r17
 a9c:	cf 93       	push	r28
 a9e:	df 93       	push	r29
 aa0:	ec 01       	movw	r28, r24
 aa2:	16 2f       	mov	r17, r22
	while(*str)
 aa4:	04 c0       	rjmp	.+8      	; 0xaae <nokia_lcd_write_string+0x14>
		nokia_lcd_write_char(*str++, scale);
 aa6:	21 96       	adiw	r28, 0x01	; 1
 aa8:	61 2f       	mov	r22, r17
 aaa:	0e 94 c7 04 	call	0x98e	; 0x98e <nokia_lcd_write_char>
	}
}

void nokia_lcd_write_string(const char *str, uint8_t scale)
{
	while(*str)
 aae:	88 81       	ld	r24, Y
 ab0:	81 11       	cpse	r24, r1
 ab2:	f9 cf       	rjmp	.-14     	; 0xaa6 <nokia_lcd_write_string+0xc>
		nokia_lcd_write_char(*str++, scale);
}
 ab4:	df 91       	pop	r29
 ab6:	cf 91       	pop	r28
 ab8:	1f 91       	pop	r17
 aba:	08 95       	ret

00000abc <nokia_lcd_set_cursor>:

void nokia_lcd_set_cursor(uint8_t x, uint8_t y)
{
	nokia_lcd.cursor_x = x;
 abc:	80 93 48 03 	sts	0x0348, r24	; 0x800348 <nokia_lcd+0x1f8>
	nokia_lcd.cursor_y = y;
 ac0:	60 93 49 03 	sts	0x0349, r22	; 0x800349 <nokia_lcd+0x1f9>
 ac4:	08 95       	ret

00000ac6 <nokia_lcd_render>:
}

void nokia_lcd_render(void)
{
 ac6:	cf 93       	push	r28
 ac8:	df 93       	push	r29
	register unsigned i;
	/* Set column and row to 0 */
	write_cmd(0x80);
 aca:	80 e8       	ldi	r24, 0x80	; 128
 acc:	0e 94 25 04 	call	0x84a	; 0x84a <write_cmd>
	write_cmd(0x40);
 ad0:	80 e4       	ldi	r24, 0x40	; 64
 ad2:	0e 94 25 04 	call	0x84a	; 0x84a <write_cmd>

	/* Write screen to display */
	for (i = 0; i < 504; i++)
 ad6:	c0 e0       	ldi	r28, 0x00	; 0
 ad8:	d0 e0       	ldi	r29, 0x00	; 0
 ada:	07 c0       	rjmp	.+14     	; 0xaea <nokia_lcd_render+0x24>
		write_data(nokia_lcd.screen[i]);
 adc:	fe 01       	movw	r30, r28
 ade:	e0 5b       	subi	r30, 0xB0	; 176
 ae0:	fe 4f       	sbci	r31, 0xFE	; 254
 ae2:	80 81       	ld	r24, Z
 ae4:	0e 94 29 04 	call	0x852	; 0x852 <write_data>
	/* Set column and row to 0 */
	write_cmd(0x80);
	write_cmd(0x40);

	/* Write screen to display */
	for (i = 0; i < 504; i++)
 ae8:	21 96       	adiw	r28, 0x01	; 1
 aea:	c8 3f       	cpi	r28, 0xF8	; 248
 aec:	81 e0       	ldi	r24, 0x01	; 1
 aee:	d8 07       	cpc	r29, r24
 af0:	a8 f3       	brcs	.-22     	; 0xadc <nokia_lcd_render+0x16>
		write_data(nokia_lcd.screen[i]);
}
 af2:	df 91       	pop	r29
 af4:	cf 91       	pop	r28
 af6:	08 95       	ret

00000af8 <__divsf3>:
 af8:	0e 94 90 05 	call	0xb20	; 0xb20 <__divsf3x>
 afc:	0c 94 71 06 	jmp	0xce2	; 0xce2 <__fp_round>
 b00:	0e 94 6a 06 	call	0xcd4	; 0xcd4 <__fp_pscB>
 b04:	58 f0       	brcs	.+22     	; 0xb1c <__divsf3+0x24>
 b06:	0e 94 63 06 	call	0xcc6	; 0xcc6 <__fp_pscA>
 b0a:	40 f0       	brcs	.+16     	; 0xb1c <__divsf3+0x24>
 b0c:	29 f4       	brne	.+10     	; 0xb18 <__divsf3+0x20>
 b0e:	5f 3f       	cpi	r21, 0xFF	; 255
 b10:	29 f0       	breq	.+10     	; 0xb1c <__divsf3+0x24>
 b12:	0c 94 5a 06 	jmp	0xcb4	; 0xcb4 <__fp_inf>
 b16:	51 11       	cpse	r21, r1
 b18:	0c 94 a5 06 	jmp	0xd4a	; 0xd4a <__fp_szero>
 b1c:	0c 94 60 06 	jmp	0xcc0	; 0xcc0 <__fp_nan>

00000b20 <__divsf3x>:
 b20:	0e 94 82 06 	call	0xd04	; 0xd04 <__fp_split3>
 b24:	68 f3       	brcs	.-38     	; 0xb00 <__divsf3+0x8>

00000b26 <__divsf3_pse>:
 b26:	99 23       	and	r25, r25
 b28:	b1 f3       	breq	.-20     	; 0xb16 <__divsf3+0x1e>
 b2a:	55 23       	and	r21, r21
 b2c:	91 f3       	breq	.-28     	; 0xb12 <__divsf3+0x1a>
 b2e:	95 1b       	sub	r25, r21
 b30:	55 0b       	sbc	r21, r21
 b32:	bb 27       	eor	r27, r27
 b34:	aa 27       	eor	r26, r26
 b36:	62 17       	cp	r22, r18
 b38:	73 07       	cpc	r23, r19
 b3a:	84 07       	cpc	r24, r20
 b3c:	38 f0       	brcs	.+14     	; 0xb4c <__divsf3_pse+0x26>
 b3e:	9f 5f       	subi	r25, 0xFF	; 255
 b40:	5f 4f       	sbci	r21, 0xFF	; 255
 b42:	22 0f       	add	r18, r18
 b44:	33 1f       	adc	r19, r19
 b46:	44 1f       	adc	r20, r20
 b48:	aa 1f       	adc	r26, r26
 b4a:	a9 f3       	breq	.-22     	; 0xb36 <__divsf3_pse+0x10>
 b4c:	35 d0       	rcall	.+106    	; 0xbb8 <__divsf3_pse+0x92>
 b4e:	0e 2e       	mov	r0, r30
 b50:	3a f0       	brmi	.+14     	; 0xb60 <__divsf3_pse+0x3a>
 b52:	e0 e8       	ldi	r30, 0x80	; 128
 b54:	32 d0       	rcall	.+100    	; 0xbba <__divsf3_pse+0x94>
 b56:	91 50       	subi	r25, 0x01	; 1
 b58:	50 40       	sbci	r21, 0x00	; 0
 b5a:	e6 95       	lsr	r30
 b5c:	00 1c       	adc	r0, r0
 b5e:	ca f7       	brpl	.-14     	; 0xb52 <__divsf3_pse+0x2c>
 b60:	2b d0       	rcall	.+86     	; 0xbb8 <__divsf3_pse+0x92>
 b62:	fe 2f       	mov	r31, r30
 b64:	29 d0       	rcall	.+82     	; 0xbb8 <__divsf3_pse+0x92>
 b66:	66 0f       	add	r22, r22
 b68:	77 1f       	adc	r23, r23
 b6a:	88 1f       	adc	r24, r24
 b6c:	bb 1f       	adc	r27, r27
 b6e:	26 17       	cp	r18, r22
 b70:	37 07       	cpc	r19, r23
 b72:	48 07       	cpc	r20, r24
 b74:	ab 07       	cpc	r26, r27
 b76:	b0 e8       	ldi	r27, 0x80	; 128
 b78:	09 f0       	breq	.+2      	; 0xb7c <__divsf3_pse+0x56>
 b7a:	bb 0b       	sbc	r27, r27
 b7c:	80 2d       	mov	r24, r0
 b7e:	bf 01       	movw	r22, r30
 b80:	ff 27       	eor	r31, r31
 b82:	93 58       	subi	r25, 0x83	; 131
 b84:	5f 4f       	sbci	r21, 0xFF	; 255
 b86:	3a f0       	brmi	.+14     	; 0xb96 <__divsf3_pse+0x70>
 b88:	9e 3f       	cpi	r25, 0xFE	; 254
 b8a:	51 05       	cpc	r21, r1
 b8c:	78 f0       	brcs	.+30     	; 0xbac <__divsf3_pse+0x86>
 b8e:	0c 94 5a 06 	jmp	0xcb4	; 0xcb4 <__fp_inf>
 b92:	0c 94 a5 06 	jmp	0xd4a	; 0xd4a <__fp_szero>
 b96:	5f 3f       	cpi	r21, 0xFF	; 255
 b98:	e4 f3       	brlt	.-8      	; 0xb92 <__divsf3_pse+0x6c>
 b9a:	98 3e       	cpi	r25, 0xE8	; 232
 b9c:	d4 f3       	brlt	.-12     	; 0xb92 <__divsf3_pse+0x6c>
 b9e:	86 95       	lsr	r24
 ba0:	77 95       	ror	r23
 ba2:	67 95       	ror	r22
 ba4:	b7 95       	ror	r27
 ba6:	f7 95       	ror	r31
 ba8:	9f 5f       	subi	r25, 0xFF	; 255
 baa:	c9 f7       	brne	.-14     	; 0xb9e <__divsf3_pse+0x78>
 bac:	88 0f       	add	r24, r24
 bae:	91 1d       	adc	r25, r1
 bb0:	96 95       	lsr	r25
 bb2:	87 95       	ror	r24
 bb4:	97 f9       	bld	r25, 7
 bb6:	08 95       	ret
 bb8:	e1 e0       	ldi	r30, 0x01	; 1
 bba:	66 0f       	add	r22, r22
 bbc:	77 1f       	adc	r23, r23
 bbe:	88 1f       	adc	r24, r24
 bc0:	bb 1f       	adc	r27, r27
 bc2:	62 17       	cp	r22, r18
 bc4:	73 07       	cpc	r23, r19
 bc6:	84 07       	cpc	r24, r20
 bc8:	ba 07       	cpc	r27, r26
 bca:	20 f0       	brcs	.+8      	; 0xbd4 <__divsf3_pse+0xae>
 bcc:	62 1b       	sub	r22, r18
 bce:	73 0b       	sbc	r23, r19
 bd0:	84 0b       	sbc	r24, r20
 bd2:	ba 0b       	sbc	r27, r26
 bd4:	ee 1f       	adc	r30, r30
 bd6:	88 f7       	brcc	.-30     	; 0xbba <__divsf3_pse+0x94>
 bd8:	e0 95       	com	r30
 bda:	08 95       	ret

00000bdc <__fixunssfsi>:
 bdc:	0e 94 8a 06 	call	0xd14	; 0xd14 <__fp_splitA>
 be0:	88 f0       	brcs	.+34     	; 0xc04 <__fixunssfsi+0x28>
 be2:	9f 57       	subi	r25, 0x7F	; 127
 be4:	98 f0       	brcs	.+38     	; 0xc0c <__fixunssfsi+0x30>
 be6:	b9 2f       	mov	r27, r25
 be8:	99 27       	eor	r25, r25
 bea:	b7 51       	subi	r27, 0x17	; 23
 bec:	b0 f0       	brcs	.+44     	; 0xc1a <__fixunssfsi+0x3e>
 bee:	e1 f0       	breq	.+56     	; 0xc28 <__fixunssfsi+0x4c>
 bf0:	66 0f       	add	r22, r22
 bf2:	77 1f       	adc	r23, r23
 bf4:	88 1f       	adc	r24, r24
 bf6:	99 1f       	adc	r25, r25
 bf8:	1a f0       	brmi	.+6      	; 0xc00 <__fixunssfsi+0x24>
 bfa:	ba 95       	dec	r27
 bfc:	c9 f7       	brne	.-14     	; 0xbf0 <__fixunssfsi+0x14>
 bfe:	14 c0       	rjmp	.+40     	; 0xc28 <__fixunssfsi+0x4c>
 c00:	b1 30       	cpi	r27, 0x01	; 1
 c02:	91 f0       	breq	.+36     	; 0xc28 <__fixunssfsi+0x4c>
 c04:	0e 94 a4 06 	call	0xd48	; 0xd48 <__fp_zero>
 c08:	b1 e0       	ldi	r27, 0x01	; 1
 c0a:	08 95       	ret
 c0c:	0c 94 a4 06 	jmp	0xd48	; 0xd48 <__fp_zero>
 c10:	67 2f       	mov	r22, r23
 c12:	78 2f       	mov	r23, r24
 c14:	88 27       	eor	r24, r24
 c16:	b8 5f       	subi	r27, 0xF8	; 248
 c18:	39 f0       	breq	.+14     	; 0xc28 <__fixunssfsi+0x4c>
 c1a:	b9 3f       	cpi	r27, 0xF9	; 249
 c1c:	cc f3       	brlt	.-14     	; 0xc10 <__fixunssfsi+0x34>
 c1e:	86 95       	lsr	r24
 c20:	77 95       	ror	r23
 c22:	67 95       	ror	r22
 c24:	b3 95       	inc	r27
 c26:	d9 f7       	brne	.-10     	; 0xc1e <__fixunssfsi+0x42>
 c28:	3e f4       	brtc	.+14     	; 0xc38 <__fixunssfsi+0x5c>
 c2a:	90 95       	com	r25
 c2c:	80 95       	com	r24
 c2e:	70 95       	com	r23
 c30:	61 95       	neg	r22
 c32:	7f 4f       	sbci	r23, 0xFF	; 255
 c34:	8f 4f       	sbci	r24, 0xFF	; 255
 c36:	9f 4f       	sbci	r25, 0xFF	; 255
 c38:	08 95       	ret

00000c3a <__floatunsisf>:
 c3a:	e8 94       	clt
 c3c:	09 c0       	rjmp	.+18     	; 0xc50 <__floatsisf+0x12>

00000c3e <__floatsisf>:
 c3e:	97 fb       	bst	r25, 7
 c40:	3e f4       	brtc	.+14     	; 0xc50 <__floatsisf+0x12>
 c42:	90 95       	com	r25
 c44:	80 95       	com	r24
 c46:	70 95       	com	r23
 c48:	61 95       	neg	r22
 c4a:	7f 4f       	sbci	r23, 0xFF	; 255
 c4c:	8f 4f       	sbci	r24, 0xFF	; 255
 c4e:	9f 4f       	sbci	r25, 0xFF	; 255
 c50:	99 23       	and	r25, r25
 c52:	a9 f0       	breq	.+42     	; 0xc7e <__floatsisf+0x40>
 c54:	f9 2f       	mov	r31, r25
 c56:	96 e9       	ldi	r25, 0x96	; 150
 c58:	bb 27       	eor	r27, r27
 c5a:	93 95       	inc	r25
 c5c:	f6 95       	lsr	r31
 c5e:	87 95       	ror	r24
 c60:	77 95       	ror	r23
 c62:	67 95       	ror	r22
 c64:	b7 95       	ror	r27
 c66:	f1 11       	cpse	r31, r1
 c68:	f8 cf       	rjmp	.-16     	; 0xc5a <__floatsisf+0x1c>
 c6a:	fa f4       	brpl	.+62     	; 0xcaa <__floatsisf+0x6c>
 c6c:	bb 0f       	add	r27, r27
 c6e:	11 f4       	brne	.+4      	; 0xc74 <__floatsisf+0x36>
 c70:	60 ff       	sbrs	r22, 0
 c72:	1b c0       	rjmp	.+54     	; 0xcaa <__floatsisf+0x6c>
 c74:	6f 5f       	subi	r22, 0xFF	; 255
 c76:	7f 4f       	sbci	r23, 0xFF	; 255
 c78:	8f 4f       	sbci	r24, 0xFF	; 255
 c7a:	9f 4f       	sbci	r25, 0xFF	; 255
 c7c:	16 c0       	rjmp	.+44     	; 0xcaa <__floatsisf+0x6c>
 c7e:	88 23       	and	r24, r24
 c80:	11 f0       	breq	.+4      	; 0xc86 <__floatsisf+0x48>
 c82:	96 e9       	ldi	r25, 0x96	; 150
 c84:	11 c0       	rjmp	.+34     	; 0xca8 <__floatsisf+0x6a>
 c86:	77 23       	and	r23, r23
 c88:	21 f0       	breq	.+8      	; 0xc92 <__floatsisf+0x54>
 c8a:	9e e8       	ldi	r25, 0x8E	; 142
 c8c:	87 2f       	mov	r24, r23
 c8e:	76 2f       	mov	r23, r22
 c90:	05 c0       	rjmp	.+10     	; 0xc9c <__floatsisf+0x5e>
 c92:	66 23       	and	r22, r22
 c94:	71 f0       	breq	.+28     	; 0xcb2 <__floatsisf+0x74>
 c96:	96 e8       	ldi	r25, 0x86	; 134
 c98:	86 2f       	mov	r24, r22
 c9a:	70 e0       	ldi	r23, 0x00	; 0
 c9c:	60 e0       	ldi	r22, 0x00	; 0
 c9e:	2a f0       	brmi	.+10     	; 0xcaa <__floatsisf+0x6c>
 ca0:	9a 95       	dec	r25
 ca2:	66 0f       	add	r22, r22
 ca4:	77 1f       	adc	r23, r23
 ca6:	88 1f       	adc	r24, r24
 ca8:	da f7       	brpl	.-10     	; 0xca0 <__floatsisf+0x62>
 caa:	88 0f       	add	r24, r24
 cac:	96 95       	lsr	r25
 cae:	87 95       	ror	r24
 cb0:	97 f9       	bld	r25, 7
 cb2:	08 95       	ret

00000cb4 <__fp_inf>:
 cb4:	97 f9       	bld	r25, 7
 cb6:	9f 67       	ori	r25, 0x7F	; 127
 cb8:	80 e8       	ldi	r24, 0x80	; 128
 cba:	70 e0       	ldi	r23, 0x00	; 0
 cbc:	60 e0       	ldi	r22, 0x00	; 0
 cbe:	08 95       	ret

00000cc0 <__fp_nan>:
 cc0:	9f ef       	ldi	r25, 0xFF	; 255
 cc2:	80 ec       	ldi	r24, 0xC0	; 192
 cc4:	08 95       	ret

00000cc6 <__fp_pscA>:
 cc6:	00 24       	eor	r0, r0
 cc8:	0a 94       	dec	r0
 cca:	16 16       	cp	r1, r22
 ccc:	17 06       	cpc	r1, r23
 cce:	18 06       	cpc	r1, r24
 cd0:	09 06       	cpc	r0, r25
 cd2:	08 95       	ret

00000cd4 <__fp_pscB>:
 cd4:	00 24       	eor	r0, r0
 cd6:	0a 94       	dec	r0
 cd8:	12 16       	cp	r1, r18
 cda:	13 06       	cpc	r1, r19
 cdc:	14 06       	cpc	r1, r20
 cde:	05 06       	cpc	r0, r21
 ce0:	08 95       	ret

00000ce2 <__fp_round>:
 ce2:	09 2e       	mov	r0, r25
 ce4:	03 94       	inc	r0
 ce6:	00 0c       	add	r0, r0
 ce8:	11 f4       	brne	.+4      	; 0xcee <__fp_round+0xc>
 cea:	88 23       	and	r24, r24
 cec:	52 f0       	brmi	.+20     	; 0xd02 <__fp_round+0x20>
 cee:	bb 0f       	add	r27, r27
 cf0:	40 f4       	brcc	.+16     	; 0xd02 <__fp_round+0x20>
 cf2:	bf 2b       	or	r27, r31
 cf4:	11 f4       	brne	.+4      	; 0xcfa <__fp_round+0x18>
 cf6:	60 ff       	sbrs	r22, 0
 cf8:	04 c0       	rjmp	.+8      	; 0xd02 <__fp_round+0x20>
 cfa:	6f 5f       	subi	r22, 0xFF	; 255
 cfc:	7f 4f       	sbci	r23, 0xFF	; 255
 cfe:	8f 4f       	sbci	r24, 0xFF	; 255
 d00:	9f 4f       	sbci	r25, 0xFF	; 255
 d02:	08 95       	ret

00000d04 <__fp_split3>:
 d04:	57 fd       	sbrc	r21, 7
 d06:	90 58       	subi	r25, 0x80	; 128
 d08:	44 0f       	add	r20, r20
 d0a:	55 1f       	adc	r21, r21
 d0c:	59 f0       	breq	.+22     	; 0xd24 <__fp_splitA+0x10>
 d0e:	5f 3f       	cpi	r21, 0xFF	; 255
 d10:	71 f0       	breq	.+28     	; 0xd2e <__fp_splitA+0x1a>
 d12:	47 95       	ror	r20

00000d14 <__fp_splitA>:
 d14:	88 0f       	add	r24, r24
 d16:	97 fb       	bst	r25, 7
 d18:	99 1f       	adc	r25, r25
 d1a:	61 f0       	breq	.+24     	; 0xd34 <__fp_splitA+0x20>
 d1c:	9f 3f       	cpi	r25, 0xFF	; 255
 d1e:	79 f0       	breq	.+30     	; 0xd3e <__fp_splitA+0x2a>
 d20:	87 95       	ror	r24
 d22:	08 95       	ret
 d24:	12 16       	cp	r1, r18
 d26:	13 06       	cpc	r1, r19
 d28:	14 06       	cpc	r1, r20
 d2a:	55 1f       	adc	r21, r21
 d2c:	f2 cf       	rjmp	.-28     	; 0xd12 <__fp_split3+0xe>
 d2e:	46 95       	lsr	r20
 d30:	f1 df       	rcall	.-30     	; 0xd14 <__fp_splitA>
 d32:	08 c0       	rjmp	.+16     	; 0xd44 <__fp_splitA+0x30>
 d34:	16 16       	cp	r1, r22
 d36:	17 06       	cpc	r1, r23
 d38:	18 06       	cpc	r1, r24
 d3a:	99 1f       	adc	r25, r25
 d3c:	f1 cf       	rjmp	.-30     	; 0xd20 <__fp_splitA+0xc>
 d3e:	86 95       	lsr	r24
 d40:	71 05       	cpc	r23, r1
 d42:	61 05       	cpc	r22, r1
 d44:	08 94       	sec
 d46:	08 95       	ret

00000d48 <__fp_zero>:
 d48:	e8 94       	clt

00000d4a <__fp_szero>:
 d4a:	bb 27       	eor	r27, r27
 d4c:	66 27       	eor	r22, r22
 d4e:	77 27       	eor	r23, r23
 d50:	cb 01       	movw	r24, r22
 d52:	97 f9       	bld	r25, 7
 d54:	08 95       	ret

00000d56 <__mulsf3>:
 d56:	0e 94 be 06 	call	0xd7c	; 0xd7c <__mulsf3x>
 d5a:	0c 94 71 06 	jmp	0xce2	; 0xce2 <__fp_round>
 d5e:	0e 94 63 06 	call	0xcc6	; 0xcc6 <__fp_pscA>
 d62:	38 f0       	brcs	.+14     	; 0xd72 <__mulsf3+0x1c>
 d64:	0e 94 6a 06 	call	0xcd4	; 0xcd4 <__fp_pscB>
 d68:	20 f0       	brcs	.+8      	; 0xd72 <__mulsf3+0x1c>
 d6a:	95 23       	and	r25, r21
 d6c:	11 f0       	breq	.+4      	; 0xd72 <__mulsf3+0x1c>
 d6e:	0c 94 5a 06 	jmp	0xcb4	; 0xcb4 <__fp_inf>
 d72:	0c 94 60 06 	jmp	0xcc0	; 0xcc0 <__fp_nan>
 d76:	11 24       	eor	r1, r1
 d78:	0c 94 a5 06 	jmp	0xd4a	; 0xd4a <__fp_szero>

00000d7c <__mulsf3x>:
 d7c:	0e 94 82 06 	call	0xd04	; 0xd04 <__fp_split3>
 d80:	70 f3       	brcs	.-36     	; 0xd5e <__mulsf3+0x8>

00000d82 <__mulsf3_pse>:
 d82:	95 9f       	mul	r25, r21
 d84:	c1 f3       	breq	.-16     	; 0xd76 <__mulsf3+0x20>
 d86:	95 0f       	add	r25, r21
 d88:	50 e0       	ldi	r21, 0x00	; 0
 d8a:	55 1f       	adc	r21, r21
 d8c:	62 9f       	mul	r22, r18
 d8e:	f0 01       	movw	r30, r0
 d90:	72 9f       	mul	r23, r18
 d92:	bb 27       	eor	r27, r27
 d94:	f0 0d       	add	r31, r0
 d96:	b1 1d       	adc	r27, r1
 d98:	63 9f       	mul	r22, r19
 d9a:	aa 27       	eor	r26, r26
 d9c:	f0 0d       	add	r31, r0
 d9e:	b1 1d       	adc	r27, r1
 da0:	aa 1f       	adc	r26, r26
 da2:	64 9f       	mul	r22, r20
 da4:	66 27       	eor	r22, r22
 da6:	b0 0d       	add	r27, r0
 da8:	a1 1d       	adc	r26, r1
 daa:	66 1f       	adc	r22, r22
 dac:	82 9f       	mul	r24, r18
 dae:	22 27       	eor	r18, r18
 db0:	b0 0d       	add	r27, r0
 db2:	a1 1d       	adc	r26, r1
 db4:	62 1f       	adc	r22, r18
 db6:	73 9f       	mul	r23, r19
 db8:	b0 0d       	add	r27, r0
 dba:	a1 1d       	adc	r26, r1
 dbc:	62 1f       	adc	r22, r18
 dbe:	83 9f       	mul	r24, r19
 dc0:	a0 0d       	add	r26, r0
 dc2:	61 1d       	adc	r22, r1
 dc4:	22 1f       	adc	r18, r18
 dc6:	74 9f       	mul	r23, r20
 dc8:	33 27       	eor	r19, r19
 dca:	a0 0d       	add	r26, r0
 dcc:	61 1d       	adc	r22, r1
 dce:	23 1f       	adc	r18, r19
 dd0:	84 9f       	mul	r24, r20
 dd2:	60 0d       	add	r22, r0
 dd4:	21 1d       	adc	r18, r1
 dd6:	82 2f       	mov	r24, r18
 dd8:	76 2f       	mov	r23, r22
 dda:	6a 2f       	mov	r22, r26
 ddc:	11 24       	eor	r1, r1
 dde:	9f 57       	subi	r25, 0x7F	; 127
 de0:	50 40       	sbci	r21, 0x00	; 0
 de2:	9a f0       	brmi	.+38     	; 0xe0a <__mulsf3_pse+0x88>
 de4:	f1 f0       	breq	.+60     	; 0xe22 <__mulsf3_pse+0xa0>
 de6:	88 23       	and	r24, r24
 de8:	4a f0       	brmi	.+18     	; 0xdfc <__mulsf3_pse+0x7a>
 dea:	ee 0f       	add	r30, r30
 dec:	ff 1f       	adc	r31, r31
 dee:	bb 1f       	adc	r27, r27
 df0:	66 1f       	adc	r22, r22
 df2:	77 1f       	adc	r23, r23
 df4:	88 1f       	adc	r24, r24
 df6:	91 50       	subi	r25, 0x01	; 1
 df8:	50 40       	sbci	r21, 0x00	; 0
 dfa:	a9 f7       	brne	.-22     	; 0xde6 <__mulsf3_pse+0x64>
 dfc:	9e 3f       	cpi	r25, 0xFE	; 254
 dfe:	51 05       	cpc	r21, r1
 e00:	80 f0       	brcs	.+32     	; 0xe22 <__mulsf3_pse+0xa0>
 e02:	0c 94 5a 06 	jmp	0xcb4	; 0xcb4 <__fp_inf>
 e06:	0c 94 a5 06 	jmp	0xd4a	; 0xd4a <__fp_szero>
 e0a:	5f 3f       	cpi	r21, 0xFF	; 255
 e0c:	e4 f3       	brlt	.-8      	; 0xe06 <__mulsf3_pse+0x84>
 e0e:	98 3e       	cpi	r25, 0xE8	; 232
 e10:	d4 f3       	brlt	.-12     	; 0xe06 <__mulsf3_pse+0x84>
 e12:	86 95       	lsr	r24
 e14:	77 95       	ror	r23
 e16:	67 95       	ror	r22
 e18:	b7 95       	ror	r27
 e1a:	f7 95       	ror	r31
 e1c:	e7 95       	ror	r30
 e1e:	9f 5f       	subi	r25, 0xFF	; 255
 e20:	c1 f7       	brne	.-16     	; 0xe12 <__mulsf3_pse+0x90>
 e22:	fe 2b       	or	r31, r30
 e24:	88 0f       	add	r24, r24
 e26:	91 1d       	adc	r25, r1
 e28:	96 95       	lsr	r25
 e2a:	87 95       	ror	r24
 e2c:	97 f9       	bld	r25, 7
 e2e:	08 95       	ret

00000e30 <__udivmodqi4>:
 e30:	99 1b       	sub	r25, r25
 e32:	79 e0       	ldi	r23, 0x09	; 9
 e34:	04 c0       	rjmp	.+8      	; 0xe3e <__udivmodqi4_ep>

00000e36 <__udivmodqi4_loop>:
 e36:	99 1f       	adc	r25, r25
 e38:	96 17       	cp	r25, r22
 e3a:	08 f0       	brcs	.+2      	; 0xe3e <__udivmodqi4_ep>
 e3c:	96 1b       	sub	r25, r22

00000e3e <__udivmodqi4_ep>:
 e3e:	88 1f       	adc	r24, r24
 e40:	7a 95       	dec	r23
 e42:	c9 f7       	brne	.-14     	; 0xe36 <__udivmodqi4_loop>
 e44:	80 95       	com	r24
 e46:	08 95       	ret

00000e48 <__udivmodhi4>:
 e48:	aa 1b       	sub	r26, r26
 e4a:	bb 1b       	sub	r27, r27
 e4c:	51 e1       	ldi	r21, 0x11	; 17
 e4e:	07 c0       	rjmp	.+14     	; 0xe5e <__udivmodhi4_ep>

00000e50 <__udivmodhi4_loop>:
 e50:	aa 1f       	adc	r26, r26
 e52:	bb 1f       	adc	r27, r27
 e54:	a6 17       	cp	r26, r22
 e56:	b7 07       	cpc	r27, r23
 e58:	10 f0       	brcs	.+4      	; 0xe5e <__udivmodhi4_ep>
 e5a:	a6 1b       	sub	r26, r22
 e5c:	b7 0b       	sbc	r27, r23

00000e5e <__udivmodhi4_ep>:
 e5e:	88 1f       	adc	r24, r24
 e60:	99 1f       	adc	r25, r25
 e62:	5a 95       	dec	r21
 e64:	a9 f7       	brne	.-22     	; 0xe50 <__udivmodhi4_loop>
 e66:	80 95       	com	r24
 e68:	90 95       	com	r25
 e6a:	bc 01       	movw	r22, r24
 e6c:	cd 01       	movw	r24, r26
 e6e:	08 95       	ret

00000e70 <__umulhisi3>:
 e70:	a2 9f       	mul	r26, r18
 e72:	b0 01       	movw	r22, r0
 e74:	b3 9f       	mul	r27, r19
 e76:	c0 01       	movw	r24, r0
 e78:	a3 9f       	mul	r26, r19
 e7a:	70 0d       	add	r23, r0
 e7c:	81 1d       	adc	r24, r1
 e7e:	11 24       	eor	r1, r1
 e80:	91 1d       	adc	r25, r1
 e82:	b2 9f       	mul	r27, r18
 e84:	70 0d       	add	r23, r0
 e86:	81 1d       	adc	r24, r1
 e88:	11 24       	eor	r1, r1
 e8a:	91 1d       	adc	r25, r1
 e8c:	08 95       	ret

00000e8e <__itoa_ncheck>:
 e8e:	bb 27       	eor	r27, r27
 e90:	4a 30       	cpi	r20, 0x0A	; 10
 e92:	31 f4       	brne	.+12     	; 0xea0 <__itoa_ncheck+0x12>
 e94:	99 23       	and	r25, r25
 e96:	22 f4       	brpl	.+8      	; 0xea0 <__itoa_ncheck+0x12>
 e98:	bd e2       	ldi	r27, 0x2D	; 45
 e9a:	90 95       	com	r25
 e9c:	81 95       	neg	r24
 e9e:	9f 4f       	sbci	r25, 0xFF	; 255
 ea0:	0c 94 53 07 	jmp	0xea6	; 0xea6 <__utoa_common>

00000ea4 <__utoa_ncheck>:
 ea4:	bb 27       	eor	r27, r27

00000ea6 <__utoa_common>:
 ea6:	fb 01       	movw	r30, r22
 ea8:	55 27       	eor	r21, r21
 eaa:	aa 27       	eor	r26, r26
 eac:	88 0f       	add	r24, r24
 eae:	99 1f       	adc	r25, r25
 eb0:	aa 1f       	adc	r26, r26
 eb2:	a4 17       	cp	r26, r20
 eb4:	10 f0       	brcs	.+4      	; 0xeba <__utoa_common+0x14>
 eb6:	a4 1b       	sub	r26, r20
 eb8:	83 95       	inc	r24
 eba:	50 51       	subi	r21, 0x10	; 16
 ebc:	b9 f7       	brne	.-18     	; 0xeac <__utoa_common+0x6>
 ebe:	a0 5d       	subi	r26, 0xD0	; 208
 ec0:	aa 33       	cpi	r26, 0x3A	; 58
 ec2:	08 f0       	brcs	.+2      	; 0xec6 <__utoa_common+0x20>
 ec4:	a9 5d       	subi	r26, 0xD9	; 217
 ec6:	a1 93       	st	Z+, r26
 ec8:	00 97       	sbiw	r24, 0x00	; 0
 eca:	79 f7       	brne	.-34     	; 0xeaa <__utoa_common+0x4>
 ecc:	b1 11       	cpse	r27, r1
 ece:	b1 93       	st	Z+, r27
 ed0:	11 92       	st	Z+, r1
 ed2:	cb 01       	movw	r24, r22
 ed4:	0c 94 6c 07 	jmp	0xed8	; 0xed8 <strrev>

00000ed8 <strrev>:
 ed8:	dc 01       	movw	r26, r24
 eda:	fc 01       	movw	r30, r24
 edc:	67 2f       	mov	r22, r23
 ede:	71 91       	ld	r23, Z+
 ee0:	77 23       	and	r23, r23
 ee2:	e1 f7       	brne	.-8      	; 0xedc <strrev+0x4>
 ee4:	32 97       	sbiw	r30, 0x02	; 2
 ee6:	04 c0       	rjmp	.+8      	; 0xef0 <strrev+0x18>
 ee8:	7c 91       	ld	r23, X
 eea:	6d 93       	st	X+, r22
 eec:	70 83       	st	Z, r23
 eee:	62 91       	ld	r22, -Z
 ef0:	ae 17       	cp	r26, r30
 ef2:	bf 07       	cpc	r27, r31
 ef4:	c8 f3       	brcs	.-14     	; 0xee8 <strrev+0x10>
 ef6:	08 95       	ret

00000ef8 <_exit>:
 ef8:	f8 94       	cli

00000efa <__stop_program>:
 efa:	ff cf       	rjmp	.-2      	; 0xefa <__stop_program>
